; ModuleID = '/home/firefox/firefox/mozilla-unified/widget/LSBUtils.cpp'
source_filename = "/home/firefox/firefox/mozilla-unified/widget/LSBUtils.cpp"
target datalayout = "e-m:e-i64:64-f80:128-n8:16:32:64-S128"
target triple = "x86_64-pc-linux-gnu"

%class.nsTSubstring = type { %"class.mozilla::detail::nsTStringRepr" }
%"class.mozilla::detail::nsTStringRepr" = type { i8*, i32, i16, i16 }
%"class.std::vector" = type { %"struct.std::_Vector_base" }
%"struct.std::_Vector_base" = type { %"struct.std::_Vector_base<std::__cxx11::basic_string<char>, std::allocator<std::__cxx11::basic_string<char> > >::_Vector_impl" }
%"struct.std::_Vector_base<std::__cxx11::basic_string<char>, std::allocator<std::__cxx11::basic_string<char> > >::_Vector_impl" = type { %"class.std::__cxx11::basic_string"*, %"class.std::__cxx11::basic_string"*, %"class.std::__cxx11::basic_string"* }
%"class.std::__cxx11::basic_string" = type { %"struct.std::__cxx11::basic_string<char, std::char_traits<char>, std::allocator<char> >::_Alloc_hider", i64, %union.anon }
%"struct.std::__cxx11::basic_string<char, std::char_traits<char>, std::allocator<char> >::_Alloc_hider" = type { i8* }
%union.anon = type { i64, [8 x i8] }
%"class.std::allocator.0" = type { i8 }
%"struct.base::LaunchOptions" = type { i8, %"class.std::map", %"class.std::vector.6", %"class.mozilla::UniquePtr" }
%"class.std::map" = type { %"class.std::_Rb_tree" }
%"class.std::_Rb_tree" = type { %"struct.std::_Rb_tree<std::__cxx11::basic_string<char>, std::pair<const std::__cxx11::basic_string<char>, std::__cxx11::basic_string<char> >, std::_Select1st<std::pair<const std::__cxx11::basic_string<char>, std::__cxx11::basic_string<char> > >, std::less<std::__cxx11::basic_string<char> >, std::allocator<std::pair<const std::__cxx11::basic_string<char>, std::__cxx11::basic_string<char> > > >::_Rb_tree_impl" }
%"struct.std::_Rb_tree<std::__cxx11::basic_string<char>, std::pair<const std::__cxx11::basic_string<char>, std::__cxx11::basic_string<char> >, std::_Select1st<std::pair<const std::__cxx11::basic_string<char>, std::__cxx11::basic_string<char> > >, std::less<std::__cxx11::basic_string<char> >, std::allocator<std::pair<const std::__cxx11::basic_string<char>, std::__cxx11::basic_string<char> > > >::_Rb_tree_impl" = type { %"struct.std::_Rb_tree_key_compare", %"struct.std::_Rb_tree_header" }
%"struct.std::_Rb_tree_key_compare" = type { %"struct.std::less" }
%"struct.std::less" = type { i8 }
%"struct.std::_Rb_tree_header" = type { %"struct.std::_Rb_tree_node_base", i64 }
%"struct.std::_Rb_tree_node_base" = type { i32, %"struct.std::_Rb_tree_node_base"*, %"struct.std::_Rb_tree_node_base"*, %"struct.std::_Rb_tree_node_base"* }
%"class.std::vector.6" = type { %"struct.std::_Vector_base.7" }
%"struct.std::_Vector_base.7" = type { %"struct.std::_Vector_base<std::pair<int, int>, std::allocator<std::pair<int, int> > >::_Vector_impl" }
%"struct.std::_Vector_base<std::pair<int, int>, std::allocator<std::pair<int, int> > >::_Vector_impl" = type { %"struct.std::pair"*, %"struct.std::pair"*, %"struct.std::pair"* }
%"struct.std::pair" = type { i32, i32 }
%"class.mozilla::UniquePtr" = type { %"struct.mozilla::Pair" }
%"struct.mozilla::Pair" = type { %"struct.mozilla::detail::PairHelper" }
%"struct.mozilla::detail::PairHelper" = type { %"struct.base::LaunchOptions::ForkDelegate"* }
%"struct.base::LaunchOptions::ForkDelegate" = type { i32 (...)** }
%"class.std::allocator" = type { i8 }
%"class.std::initializer_list" = type { %"class.std::__cxx11::basic_string"*, i64 }
%"class.mozilla::DefaultDelete" = type { i8 }
%struct._IO_FILE = type { i32, i8*, i8*, i8*, i8*, i8*, i8*, i8*, i8*, i8*, i8*, i8*, %struct._IO_marker*, %struct._IO_FILE*, i32, i32, i64, i16, i8, [1 x i8], i8*, i64, %struct._IO_codecvt*, %struct._IO_wide_data*, %struct._IO_FILE*, i8*, i64, i32, [20 x i8] }
%struct._IO_marker = type opaque
%struct._IO_codecvt = type opaque
%struct._IO_wide_data = type opaque
%"class.mozilla::Scoped" = type { %struct._IO_FILE* }
%"struct.std::_Rb_tree_node" = type { %"struct.std::_Rb_tree_node_base", %"struct.__gnu_cxx::__aligned_membuf" }
%"struct.__gnu_cxx::__aligned_membuf" = type { [64 x i8] }
%"struct.std::pair.11" = type { %"class.std::__cxx11::basic_string", %"class.std::__cxx11::basic_string" }
%"class.__gnu_cxx::new_allocator" = type { i8 }
%"class.__gnu_cxx::__normal_iterator" = type { %"struct.std::pair"* }
%"class.std::move_iterator" = type { %"struct.std::pair"* }
%"class.std::allocator.8" = type { i8 }
%"class.__gnu_cxx::new_allocator.9" = type { i8 }

$_ZN4base13LaunchOptionsD2Ev = comdat any

$_ZNSt6vectorINSt7__cxx1112basic_stringIcSt11char_traitsIcESaIcEEESaIS5_EED2Ev = comdat any

$_ZN7mozilla9UniquePtrIN4base13LaunchOptions12ForkDelegateENS_13DefaultDeleteIS3_EEED2Ev = comdat any

$_ZNSt12_Vector_baseISt4pairIiiESaIS1_EED2Ev = comdat any

$_ZNSt8_Rb_treeINSt7__cxx1112basic_stringIcSt11char_traitsIcESaIcEEESt4pairIKS5_S5_ESt10_Select1stIS8_ESt4lessIS5_ESaIS8_EED2Ev = comdat any

$_ZNSt8_Rb_treeINSt7__cxx1112basic_stringIcSt11char_traitsIcESaIcEEESt4pairIKS5_S5_ESt10_Select1stIS8_ESt4lessIS5_ESaIS8_EE8_M_eraseEPSt13_Rb_tree_nodeIS8_E = comdat any

$_ZNSt8_Rb_treeINSt7__cxx1112basic_stringIcSt11char_traitsIcESaIcEEESt4pairIKS5_S5_ESt10_Select1stIS8_ESt4lessIS5_ESaIS8_EE12_M_drop_nodeEPSt13_Rb_tree_nodeIS8_E = comdat any

$_ZNSt4pairIKNSt7__cxx1112basic_stringIcSt11char_traitsIcESaIcEEES5_ED2Ev = comdat any

$_ZNSt12_Vector_baseINSt7__cxx1112basic_stringIcSt11char_traitsIcESaIcEEESaIS5_EED2Ev = comdat any

$_ZNSt12_Destroy_auxILb0EE9__destroyIPNSt7__cxx1112basic_stringIcSt11char_traitsIcESaIcEEEEEvT_S9_ = comdat any

$_ZNSt6vectorINSt7__cxx1112basic_stringIcSt11char_traitsIcESaIcEEESaIS5_EE19_M_range_initializeIPKS5_EEvT_SB_St20forward_iterator_tag = comdat any

$_ZNSt12_Vector_baseINSt7__cxx1112basic_stringIcSt11char_traitsIcESaIcEEESaIS5_EE11_M_allocateEm = comdat any

$_ZNSt16allocator_traitsISaINSt7__cxx1112basic_stringIcSt11char_traitsIcESaIcEEEEE8allocateERS6_m = comdat any

$_ZN9__gnu_cxx13new_allocatorINSt7__cxx1112basic_stringIcSt11char_traitsIcESaIcEEEE8allocateEmPKv = comdat any

$_ZNSt20__uninitialized_copyILb0EE13__uninit_copyIPKNSt7__cxx1112basic_stringIcSt11char_traitsIcESaIcEEEPS7_EET0_T_SC_SB_ = comdat any

$_ZNSt6vectorISt4pairIiiESaIS1_EE12emplace_backIJS1_EEEvDpOT_ = comdat any

$_ZNSt6vectorISt4pairIiiESaIS1_EE17_M_realloc_insertIJS1_EEEvN9__gnu_cxx17__normal_iteratorIPS1_S3_EEDpOT_ = comdat any

$_ZNKSt6vectorISt4pairIiiESaIS1_EE12_M_check_lenEmPKc = comdat any

$_ZNSt12_Vector_baseISt4pairIiiESaIS1_EE11_M_allocateEm = comdat any

$_ZNSt16allocator_traitsISaISt4pairIiiEEE8allocateERS2_m = comdat any

$_ZN9__gnu_cxx13new_allocatorISt4pairIiiEE8allocateEmPKv = comdat any

$_ZN7mozilla21ScopedCloseFileTraits7releaseEP8_IO_FILE = comdat any

@.str = private unnamed_addr constant [6 x i8] c"-idrc\00", align 1
@.str.1 = private unnamed_addr constant [2 x i8] c"r\00", align 1
@.str.2 = private unnamed_addr constant [85 x i8] c"Distributor ID:\09%255[^\0A]\0ADescription:\09%255[^\0A]\0ARelease:\09%255[^\0A]\0ACodename:\09%255[^\0A]\0A\00", align 1
@.str.3 = private unnamed_addr constant [21 x i8] c"/usr/bin/lsb_release\00", align 1
@.str.5 = private unnamed_addr constant [27 x i8] c"fatal: STL threw bad_alloc\00", align 1
@.str.6 = private unnamed_addr constant [26 x i8] c"vector::_M_realloc_insert\00", align 1

; Function Attrs: minsize nounwind optsize sspstrong uwtable
define hidden zeroext i1 @_ZN7mozilla6widget3lsb13GetLSBReleaseER12nsTSubstringIcES4_S4_S4_(%class.nsTSubstring* dereferenceable(16), %class.nsTSubstring* dereferenceable(16), %class.nsTSubstring* dereferenceable(16), %class.nsTSubstring* dereferenceable(16)) local_unnamed_addr #0 !dbg !2908 {
  %5 = alloca [2 x i32], align 4
  %6 = alloca %"class.std::vector", align 8
  %7 = alloca [2 x %"class.std::__cxx11::basic_string"], align 8
  %8 = alloca %"class.std::allocator.0", align 1
  %9 = alloca %"class.std::allocator.0", align 1
  %10 = alloca %"struct.base::LaunchOptions", align 8
  %11 = alloca %"struct.std::pair", align 4
  %12 = alloca i32, align 4
  %13 = alloca [256 x i8], align 16
  %14 = alloca [256 x i8], align 16
  %15 = alloca [256 x i8], align 16
  %16 = alloca [256 x i8], align 16
  call void @llvm.dbg.value(metadata %class.nsTSubstring* %0, metadata !2915, metadata !DIExpression()), !dbg !3579
  call void @llvm.dbg.value(metadata %class.nsTSubstring* %1, metadata !2916, metadata !DIExpression()), !dbg !3580
  call void @llvm.dbg.value(metadata %class.nsTSubstring* %2, metadata !2917, metadata !DIExpression()), !dbg !3581
  call void @llvm.dbg.value(metadata %class.nsTSubstring* %3, metadata !2918, metadata !DIExpression()), !dbg !3582
  %17 = tail call i32 @access(i8* getelementptr inbounds ([21 x i8], [21 x i8]* @.str.3, i64 0, i64 0), i32 4) #7, !dbg !3583
  %18 = icmp eq i32 %17, 0, !dbg !3585
  br i1 %18, label %19, label %85, !dbg !3586

; <label>:19:                                     ; preds = %4
  %20 = bitcast [2 x i32]* %5 to i8*, !dbg !3587
  call void @llvm.lifetime.start.p0i8(i64 8, i8* nonnull %20) #8, !dbg !3587
  call void @llvm.dbg.declare(metadata [2 x i32]* %5, metadata !2919, metadata !DIExpression()), !dbg !3588
  %21 = getelementptr inbounds [2 x i32], [2 x i32]* %5, i64 0, i64 0, !dbg !3589
  %22 = call i32 @pipe(i32* nonnull %21) #7, !dbg !3591
  %23 = icmp eq i32 %22, -1, !dbg !3592
  br i1 %23, label %83, label %24, !dbg !3593

; <label>:24:                                     ; preds = %19
  %25 = bitcast %"class.std::vector"* %6 to i8*, !dbg !3594
  call void @llvm.lifetime.start.p0i8(i64 24, i8* nonnull %25) #8, !dbg !3594
  %26 = bitcast [2 x %"class.std::__cxx11::basic_string"]* %7 to i8*, !dbg !3595
  call void @llvm.lifetime.start.p0i8(i64 64, i8* nonnull %26) #8, !dbg !3595
  %27 = getelementptr inbounds [2 x %"class.std::__cxx11::basic_string"], [2 x %"class.std::__cxx11::basic_string"]* %7, i64 0, i64 0, !dbg !3595
  %28 = getelementptr inbounds %"class.std::allocator.0", %"class.std::allocator.0"* %8, i64 0, i32 0, !dbg !3596
  call void @llvm.lifetime.start.p0i8(i64 1, i8* nonnull %28) #8, !dbg !3596
  call void @_ZNSt7__cxx1112basic_stringIcSt11char_traitsIcESaIcEEC2EPKcRKS3_(%"class.std::__cxx11::basic_string"* nonnull %27, i8* getelementptr inbounds ([21 x i8], [21 x i8]* @.str.3, i64 0, i64 0), %"class.std::allocator.0"* nonnull dereferenceable(1) %8) #9, !dbg !3596
  %29 = getelementptr inbounds [2 x %"class.std::__cxx11::basic_string"], [2 x %"class.std::__cxx11::basic_string"]* %7, i64 0, i64 1, !dbg !3595
  %30 = getelementptr inbounds %"class.std::allocator.0", %"class.std::allocator.0"* %9, i64 0, i32 0, !dbg !3597
  call void @llvm.lifetime.start.p0i8(i64 1, i8* nonnull %30) #8, !dbg !3597
  call void @_ZNSt7__cxx1112basic_stringIcSt11char_traitsIcESaIcEEC2EPKcRKS3_(%"class.std::__cxx11::basic_string"* nonnull %29, i8* getelementptr inbounds ([6 x i8], [6 x i8]* @.str, i64 0, i64 0), %"class.std::allocator.0"* nonnull dereferenceable(1) %9) #9, !dbg !3597
  call void @llvm.dbg.value(metadata %"class.std::vector"* %6, metadata !2923, metadata !DIExpression(DW_OP_deref)), !dbg !3598
  call void @llvm.dbg.value(metadata %"class.std::vector"* %6, metadata !3599, metadata !DIExpression()) #8, !dbg !3605
  call void @llvm.dbg.value(metadata %"class.std::allocator"* undef, metadata !3603, metadata !DIExpression()) #8, !dbg !3607
  call void @llvm.dbg.value(metadata %"class.std::vector"* %6, metadata !3608, metadata !DIExpression()) #8, !dbg !3613
  call void @llvm.dbg.value(metadata %"class.std::allocator"* undef, metadata !3611, metadata !DIExpression()) #8, !dbg !3615
  call void @llvm.dbg.value(metadata %"class.std::vector"* %6, metadata !3616, metadata !DIExpression()) #8, !dbg !3621
  call void @llvm.dbg.value(metadata %"class.std::allocator"* undef, metadata !3619, metadata !DIExpression()) #8, !dbg !3623
  call void @llvm.memset.p0i8.i64(i8* nonnull align 8 %25, i8 0, i64 24, i1 false) #8, !dbg !3624
  call void @llvm.dbg.value(metadata %"class.std::initializer_list"* undef, metadata !3602, metadata !DIExpression(DW_OP_deref)) #8, !dbg !3625
  call void @llvm.dbg.value(metadata %"class.std::initializer_list"* undef, metadata !3602, metadata !DIExpression(DW_OP_deref)) #8, !dbg !3625
  call void @llvm.dbg.value(metadata %"class.std::initializer_list"* undef, metadata !3626, metadata !DIExpression()) #8, !dbg !3630
  %31 = getelementptr inbounds [2 x %"class.std::__cxx11::basic_string"], [2 x %"class.std::__cxx11::basic_string"]* %7, i64 0, i64 2, !dbg !3633
  call void @_ZNSt6vectorINSt7__cxx1112basic_stringIcSt11char_traitsIcESaIcEEESaIS5_EE19_M_range_initializeIPKS5_EEvT_SB_St20forward_iterator_tag(%"class.std::vector"* nonnull %6, %"class.std::__cxx11::basic_string"* nonnull %27, %"class.std::__cxx11::basic_string"* nonnull %31) #7, !dbg !3634
  br label %32, !dbg !3595

; <label>:32:                                     ; preds = %32, %24
  %33 = phi %"class.std::__cxx11::basic_string"* [ %31, %24 ], [ %34, %32 ], !dbg !3595
  %34 = getelementptr inbounds %"class.std::__cxx11::basic_string", %"class.std::__cxx11::basic_string"* %33, i64 -1, !dbg !3595
  call void @llvm.dbg.value(metadata %"class.std::__cxx11::basic_string"* %34, metadata !3635, metadata !DIExpression()) #8, !dbg !3642
  call void @_ZNSt7__cxx1112basic_stringIcSt11char_traitsIcESaIcEE10_M_disposeEv(%"class.std::__cxx11::basic_string"* nonnull %34) #7, !dbg !3644
  %35 = icmp eq %"class.std::__cxx11::basic_string"* %34, %27, !dbg !3595
  br i1 %35, label %36, label %32, !dbg !3595

; <label>:36:                                     ; preds = %32
  call void @llvm.lifetime.end.p0i8(i64 1, i8* nonnull %30) #8, !dbg !3595
  call void @llvm.lifetime.end.p0i8(i64 1, i8* nonnull %28) #8, !dbg !3595
  call void @llvm.lifetime.end.p0i8(i64 64, i8* nonnull %26) #8, !dbg !3595
  %37 = getelementptr inbounds %"struct.base::LaunchOptions", %"struct.base::LaunchOptions"* %10, i64 0, i32 0, !dbg !3646
  call void @llvm.lifetime.start.p0i8(i64 88, i8* nonnull %37) #8, !dbg !3646
  call void @llvm.dbg.value(metadata %"struct.base::LaunchOptions"* %10, metadata !3145, metadata !DIExpression(DW_OP_deref)), !dbg !3647
  call void @llvm.dbg.value(metadata %"struct.base::LaunchOptions"* %10, metadata !3648, metadata !DIExpression()) #8, !dbg !3656
  store i8 0, i8* %37, align 8, !dbg !3658
  call void @llvm.dbg.value(metadata %"struct.base::LaunchOptions"* %10, metadata !3659, metadata !DIExpression(DW_OP_plus_uconst, 8, DW_OP_stack_value)) #8, !dbg !3663
  call void @llvm.dbg.value(metadata %"struct.base::LaunchOptions"* %10, metadata !3665, metadata !DIExpression(DW_OP_plus_uconst, 8, DW_OP_stack_value)) #8, !dbg !3669
  call void @llvm.dbg.value(metadata %"struct.base::LaunchOptions"* %10, metadata !3671, metadata !DIExpression(DW_OP_plus_uconst, 8, DW_OP_stack_value)) #8, !dbg !3675
  %38 = getelementptr inbounds %"struct.base::LaunchOptions", %"struct.base::LaunchOptions"* %10, i64 0, i32 1, i32 0, i32 0, i32 0, i32 0, i32 0, !dbg !3677
  %39 = getelementptr inbounds i8, i8* %38, i64 8, !dbg !3677
  call void @llvm.dbg.value(metadata i8* %39, metadata !3678, metadata !DIExpression()) #8, !dbg !3682
  %40 = bitcast i8* %39 to i32*, !dbg !3684
  store i32 0, i32* %40, align 8, !dbg !3686
  call void @llvm.dbg.value(metadata i8* %39, metadata !3687, metadata !DIExpression()) #8, !dbg !3690
  %41 = getelementptr inbounds i8, i8* %38, i64 16, !dbg !3692
  %42 = bitcast i8* %41 to %"struct.std::_Rb_tree_node_base"**, !dbg !3692
  store %"struct.std::_Rb_tree_node_base"* null, %"struct.std::_Rb_tree_node_base"** %42, align 8, !dbg !3693
  %43 = getelementptr inbounds i8, i8* %38, i64 24, !dbg !3694
  %44 = bitcast i8* %43 to i8**, !dbg !3695
  store i8* %39, i8** %44, align 8, !dbg !3695
  %45 = getelementptr inbounds i8, i8* %38, i64 32, !dbg !3696
  %46 = bitcast i8* %45 to i8**, !dbg !3697
  store i8* %39, i8** %46, align 8, !dbg !3697
  %47 = getelementptr inbounds i8, i8* %38, i64 40, !dbg !3698
  %48 = bitcast i8* %47 to i64*, !dbg !3698
  store i64 0, i64* %48, align 8, !dbg !3699
  %49 = getelementptr inbounds %"struct.base::LaunchOptions", %"struct.base::LaunchOptions"* %10, i64 0, i32 2, !dbg !3700
  call void @llvm.dbg.value(metadata %"struct.base::LaunchOptions"* %10, metadata !3701, metadata !DIExpression(DW_OP_plus_uconst, 80, DW_OP_stack_value)) #8, !dbg !3706
  call void @llvm.dbg.value(metadata i8* null, metadata !3704, metadata !DIExpression()) #8, !dbg !3708
  call void @llvm.dbg.value(metadata %"struct.base::LaunchOptions"* %10, metadata !3709, metadata !DIExpression(DW_OP_plus_uconst, 80, DW_OP_stack_value)) #8, !dbg !3723
  call void @llvm.dbg.value(metadata %"class.mozilla::DefaultDelete"* undef, metadata !3721, metadata !DIExpression()) #8, !dbg !3725
  call void @llvm.dbg.value(metadata %"struct.base::LaunchOptions"* %10, metadata !3726, metadata !DIExpression(DW_OP_plus_uconst, 80, DW_OP_stack_value)) #8, !dbg !3735
  %50 = bitcast %"class.std::vector.6"* %49 to i8*, !dbg !3700
  call void @llvm.memset.p0i8.i64(i8* nonnull align 8 %50, i8 0, i64 32, i1 false) #8, !dbg !3737
  %51 = bitcast %"struct.std::pair"* %11 to i8*, !dbg !3738
  call void @llvm.lifetime.start.p0i8(i64 8, i8* nonnull %51) #8, !dbg !3738
  %52 = getelementptr inbounds [2 x i32], [2 x i32]* %5, i64 0, i64 1, !dbg !3739
  call void @llvm.dbg.value(metadata %"struct.std::pair"* %11, metadata !3740, metadata !DIExpression()), !dbg !3752
  call void @llvm.dbg.value(metadata i32* %52, metadata !3750, metadata !DIExpression()), !dbg !3754
  %53 = getelementptr inbounds %"struct.std::pair", %"struct.std::pair"* %11, i64 0, i32 0, !dbg !3755
  %54 = load i32, i32* %52, align 4, !dbg !3756
  store i32 %54, i32* %53, align 4, !dbg !3755
  %55 = getelementptr inbounds %"struct.std::pair", %"struct.std::pair"* %11, i64 0, i32 1, !dbg !3757
  store i32 1, i32* %55, align 4, !dbg !3757
  call void @llvm.dbg.value(metadata %"class.std::vector.6"* %49, metadata !3758, metadata !DIExpression()) #8, !dbg !3763
  call void @llvm.dbg.value(metadata %"struct.std::pair"* %11, metadata !3761, metadata !DIExpression()) #8, !dbg !3765
  call void @_ZNSt6vectorISt4pairIiiESaIS1_EE12emplace_backIJS1_EEEvDpOT_(%"class.std::vector.6"* nonnull %49, %"struct.std::pair"* nonnull dereferenceable(8) %11) #7, !dbg !3766
  call void @llvm.lifetime.end.p0i8(i64 8, i8* nonnull %51) #8, !dbg !3767
  store i8 1, i8* %37, align 8, !dbg !3768
  %56 = bitcast i32* %12 to i8*, !dbg !3769
  call void @llvm.lifetime.start.p0i8(i64 4, i8* nonnull %56) #8, !dbg !3769
  call void @llvm.dbg.value(metadata %"class.std::vector"* %6, metadata !2923, metadata !DIExpression(DW_OP_deref)), !dbg !3598
  call void @llvm.dbg.value(metadata %"struct.base::LaunchOptions"* %10, metadata !3145, metadata !DIExpression(DW_OP_deref)), !dbg !3647
  call void @llvm.dbg.value(metadata i32* %12, metadata !3499, metadata !DIExpression(DW_OP_deref)), !dbg !3770
  %57 = call zeroext i1 @_ZN4base9LaunchAppERKSt6vectorINSt7__cxx1112basic_stringIcSt11char_traitsIcESaIcEEESaIS6_EERKNS_13LaunchOptionsEPi(%"class.std::vector"* nonnull dereferenceable(24) %6, %"struct.base::LaunchOptions"* nonnull dereferenceable(88) %10, i32* nonnull %12) #7, !dbg !3771
  %58 = load i32, i32* %52, align 4, !dbg !3772
  %59 = call i32 @close(i32 %58) #7, !dbg !3773
  %60 = load i32, i32* %21, align 4, !dbg !3774
  br i1 %57, label %63, label %61, !dbg !3777

; <label>:61:                                     ; preds = %36
  %62 = call i32 @close(i32 %60) #7, !dbg !3778
  br label %81, !dbg !3779

; <label>:63:                                     ; preds = %36
  %64 = call %struct._IO_FILE* @fdopen(i32 %60, i8* getelementptr inbounds ([2 x i8], [2 x i8]* @.str.1, i64 0, i64 0)) #7, !dbg !3780
  call void @llvm.dbg.value(metadata %"class.mozilla::Scoped"* undef, metadata !3506, metadata !DIExpression(DW_OP_deref)), !dbg !3781
  call void @llvm.dbg.value(metadata %"class.mozilla::Scoped"* undef, metadata !3506, metadata !DIExpression(DW_OP_deref)), !dbg !3781
  %65 = icmp eq %struct._IO_FILE* %64, null, !dbg !3782
  br i1 %65, label %66, label %69, !dbg !3784

; <label>:66:                                     ; preds = %63
  %67 = load i32, i32* %21, align 4, !dbg !3785
  %68 = call i32 @close(i32 %67) #7, !dbg !3787
  br label %79, !dbg !3788

; <label>:69:                                     ; preds = %63
  %70 = getelementptr inbounds [256 x i8], [256 x i8]* %13, i64 0, i64 0, !dbg !3789
  call void @llvm.lifetime.start.p0i8(i64 256, i8* nonnull %70) #8, !dbg !3789
  call void @llvm.dbg.declare(metadata [256 x i8]* %13, metadata !3572, metadata !DIExpression()), !dbg !3790
  %71 = getelementptr inbounds [256 x i8], [256 x i8]* %14, i64 0, i64 0, !dbg !3789
  call void @llvm.lifetime.start.p0i8(i64 256, i8* nonnull %71) #8, !dbg !3789
  call void @llvm.dbg.declare(metadata [256 x i8]* %14, metadata !3576, metadata !DIExpression()), !dbg !3791
  %72 = getelementptr inbounds [256 x i8], [256 x i8]* %15, i64 0, i64 0, !dbg !3789
  call void @llvm.lifetime.start.p0i8(i64 256, i8* nonnull %72) #8, !dbg !3789
  call void @llvm.dbg.declare(metadata [256 x i8]* %15, metadata !3577, metadata !DIExpression()), !dbg !3792
  %73 = getelementptr inbounds [256 x i8], [256 x i8]* %16, i64 0, i64 0, !dbg !3789
  call void @llvm.lifetime.start.p0i8(i64 256, i8* nonnull %73) #8, !dbg !3789
  call void @llvm.dbg.declare(metadata [256 x i8]* %16, metadata !3578, metadata !DIExpression()), !dbg !3793
  call void @llvm.dbg.value(metadata %"class.mozilla::Scoped"* undef, metadata !3506, metadata !DIExpression(DW_OP_deref)), !dbg !3781
  %74 = call i32 (%struct._IO_FILE*, i8*, ...) @fscanf(%struct._IO_FILE* nonnull %64, i8* getelementptr inbounds ([85 x i8], [85 x i8]* @.str.2, i64 0, i64 0), i8* nonnull %70, i8* nonnull %71, i8* nonnull %72, i8* nonnull %73) #9, !dbg !3794
  %75 = icmp eq i32 %74, 4, !dbg !3796
  br i1 %75, label %76, label %77, !dbg !3797

; <label>:76:                                     ; preds = %69
  call void @_ZN12nsTSubstringIcE6AssignEPKcj(%class.nsTSubstring* nonnull %0, i8* nonnull %70, i32 -1) #7, !dbg !3798
  call void @_ZN12nsTSubstringIcE6AssignEPKcj(%class.nsTSubstring* nonnull %1, i8* nonnull %71, i32 -1) #7, !dbg !3799
  call void @_ZN12nsTSubstringIcE6AssignEPKcj(%class.nsTSubstring* nonnull %2, i8* nonnull %72, i32 -1) #7, !dbg !3800
  call void @_ZN12nsTSubstringIcE6AssignEPKcj(%class.nsTSubstring* nonnull %3, i8* nonnull %73, i32 -1) #7, !dbg !3801
  br label %77, !dbg !3802

; <label>:77:                                     ; preds = %69, %76
  %78 = phi i1 [ true, %76 ], [ false, %69 ], !dbg !3803
  call void @llvm.lifetime.end.p0i8(i64 256, i8* nonnull %73) #8, !dbg !3804
  call void @llvm.lifetime.end.p0i8(i64 256, i8* nonnull %72) #8, !dbg !3804
  call void @llvm.lifetime.end.p0i8(i64 256, i8* nonnull %71) #8, !dbg !3804
  call void @llvm.lifetime.end.p0i8(i64 256, i8* nonnull %70) #8, !dbg !3804
  br label %79

; <label>:79:                                     ; preds = %77, %66
  %80 = phi i1 [ %78, %77 ], [ false, %66 ], !dbg !3805
  call void @llvm.dbg.value(metadata %"class.mozilla::Scoped"* undef, metadata !3506, metadata !DIExpression(DW_OP_deref)), !dbg !3781
  call void @llvm.dbg.value(metadata %"class.mozilla::Scoped"* undef, metadata !3806, metadata !DIExpression()) #8, !dbg !3810
  call void @_ZN7mozilla21ScopedCloseFileTraits7releaseEP8_IO_FILE(%struct._IO_FILE* %64) #7, !dbg !3812
  br label %81

; <label>:81:                                     ; preds = %79, %61
  %82 = phi i1 [ %80, %79 ], [ false, %61 ], !dbg !3774
  call void @llvm.lifetime.end.p0i8(i64 4, i8* nonnull %56) #8, !dbg !3804
  call void @llvm.dbg.value(metadata %"struct.base::LaunchOptions"* %10, metadata !3145, metadata !DIExpression(DW_OP_deref)), !dbg !3647
  call void @_ZN4base13LaunchOptionsD2Ev(%"struct.base::LaunchOptions"* nonnull %10) #7, !dbg !3804
  call void @llvm.lifetime.end.p0i8(i64 88, i8* nonnull %37) #8, !dbg !3804
  call void @llvm.dbg.value(metadata %"class.std::vector"* %6, metadata !2923, metadata !DIExpression(DW_OP_deref)), !dbg !3598
  call void @_ZNSt6vectorINSt7__cxx1112basic_stringIcSt11char_traitsIcESaIcEEESaIS5_EED2Ev(%"class.std::vector"* nonnull %6) #7, !dbg !3804
  call void @llvm.lifetime.end.p0i8(i64 24, i8* nonnull %25) #8, !dbg !3804
  br label %83

; <label>:83:                                     ; preds = %19, %81
  %84 = phi i1 [ %82, %81 ], [ false, %19 ], !dbg !3814
  call void @llvm.lifetime.end.p0i8(i64 8, i8* nonnull %20) #8, !dbg !3804
  br label %85

; <label>:85:                                     ; preds = %4, %83
  %86 = phi i1 [ %84, %83 ], [ false, %4 ], !dbg !3816
  ret i1 %86, !dbg !3804
}

; Function Attrs: nounwind readnone speculatable
declare void @llvm.dbg.declare(metadata, metadata, metadata) #1

; Function Attrs: minsize nounwind optsize
declare i32 @access(i8* nocapture readonly, i32) local_unnamed_addr #2

; Function Attrs: argmemonly nounwind
declare void @llvm.lifetime.start.p0i8(i64, i8* nocapture) #3

; Function Attrs: minsize nounwind optsize
declare i32 @pipe(i32*) local_unnamed_addr #2

; Function Attrs: minsize nounwind optsize sspstrong uwtable
declare void @_ZNSt7__cxx1112basic_stringIcSt11char_traitsIcESaIcEEC2EPKcRKS3_(%"class.std::__cxx11::basic_string"*, i8*, %"class.std::allocator.0"* dereferenceable(1)) unnamed_addr #0 align 2

; Function Attrs: argmemonly nounwind
declare void @llvm.lifetime.end.p0i8(i64, i8* nocapture) #3

; Function Attrs: minsize optsize
declare hidden zeroext i1 @_ZN4base9LaunchAppERKSt6vectorINSt7__cxx1112basic_stringIcSt11char_traitsIcESaIcEEESaIS6_EERKNS_13LaunchOptionsEPi(%"class.std::vector"* dereferenceable(24), %"struct.base::LaunchOptions"* dereferenceable(88), i32*) local_unnamed_addr #4

; Function Attrs: minsize optsize
declare i32 @close(i32) local_unnamed_addr #4

; Function Attrs: minsize nounwind optsize
declare noalias %struct._IO_FILE* @fdopen(i32, i8* nocapture readonly) local_unnamed_addr #2

; Function Attrs: minsize nounwind optsize
declare i32 @fscanf(%struct._IO_FILE* nocapture, i8* nocapture readonly, ...) local_unnamed_addr #2

; Function Attrs: minsize optsize
declare hidden void @_ZN12nsTSubstringIcE6AssignEPKcj(%class.nsTSubstring*, i8*, i32) local_unnamed_addr #4

; Function Attrs: inlinehint minsize nounwind optsize sspstrong uwtable
define linkonce_odr hidden void @_ZN4base13LaunchOptionsD2Ev(%"struct.base::LaunchOptions"*) unnamed_addr #5 comdat align 2 !dbg !3818 {
  call void @llvm.dbg.value(metadata %"struct.base::LaunchOptions"* %0, metadata !3821, metadata !DIExpression()), !dbg !3822
  %2 = getelementptr inbounds %"struct.base::LaunchOptions", %"struct.base::LaunchOptions"* %0, i64 0, i32 3, !dbg !3823
  tail call void @_ZN7mozilla9UniquePtrIN4base13LaunchOptions12ForkDelegateENS_13DefaultDeleteIS3_EEED2Ev(%"class.mozilla::UniquePtr"* nonnull %2) #7, !dbg !3823
  call void @llvm.dbg.value(metadata %"struct.base::LaunchOptions"* %0, metadata !3825, metadata !DIExpression(DW_OP_plus_uconst, 56, DW_OP_stack_value)) #8, !dbg !3828
  %3 = getelementptr inbounds %"struct.base::LaunchOptions", %"struct.base::LaunchOptions"* %0, i64 0, i32 2, i32 0, !dbg !3830
  tail call void @_ZNSt12_Vector_baseISt4pairIiiESaIS1_EED2Ev(%"struct.std::_Vector_base.7"* nonnull %3) #7, !dbg !3832
  call void @llvm.dbg.value(metadata %"struct.base::LaunchOptions"* %0, metadata !3833, metadata !DIExpression(DW_OP_plus_uconst, 8, DW_OP_stack_value)) #8, !dbg !3836
  %4 = getelementptr inbounds %"struct.base::LaunchOptions", %"struct.base::LaunchOptions"* %0, i64 0, i32 1, i32 0, !dbg !3838
  tail call void @_ZNSt8_Rb_treeINSt7__cxx1112basic_stringIcSt11char_traitsIcESaIcEEESt4pairIKS5_S5_ESt10_Select1stIS8_ESt4lessIS5_ESaIS8_EED2Ev(%"class.std::_Rb_tree"* nonnull %4) #7, !dbg !3838
  ret void, !dbg !3840
}

; Function Attrs: minsize nounwind optsize sspstrong uwtable
define linkonce_odr void @_ZNSt6vectorINSt7__cxx1112basic_stringIcSt11char_traitsIcESaIcEEESaIS5_EED2Ev(%"class.std::vector"*) unnamed_addr #0 comdat align 2 !dbg !3841 {
  call void @llvm.dbg.value(metadata %"class.std::vector"* %0, metadata !3843, metadata !DIExpression()), !dbg !3844
  %2 = getelementptr inbounds %"class.std::vector", %"class.std::vector"* %0, i64 0, i32 0, !dbg !3845
  %3 = getelementptr inbounds %"class.std::vector", %"class.std::vector"* %0, i64 0, i32 0, i32 0, i32 0, !dbg !3847
  %4 = load %"class.std::__cxx11::basic_string"*, %"class.std::__cxx11::basic_string"** %3, align 8, !dbg !3847
  %5 = getelementptr inbounds %"class.std::vector", %"class.std::vector"* %0, i64 0, i32 0, i32 0, i32 1, !dbg !3848
  %6 = load %"class.std::__cxx11::basic_string"*, %"class.std::__cxx11::basic_string"** %5, align 8, !dbg !3848
  call void @llvm.dbg.value(metadata %"class.std::__cxx11::basic_string"* %4, metadata !3849, metadata !DIExpression()) #8, !dbg !3859
  call void @llvm.dbg.value(metadata %"class.std::__cxx11::basic_string"* %6, metadata !3855, metadata !DIExpression()) #8, !dbg !3861
  call void @llvm.dbg.value(metadata %"struct.std::_Vector_base"* %2, metadata !3856, metadata !DIExpression()) #8, !dbg !3862
  call void @llvm.dbg.value(metadata %"class.std::__cxx11::basic_string"* %4, metadata !3863, metadata !DIExpression()) #8, !dbg !3870
  call void @llvm.dbg.value(metadata %"class.std::__cxx11::basic_string"* %6, metadata !3868, metadata !DIExpression()) #8, !dbg !3872
  tail call void @_ZNSt12_Destroy_auxILb0EE9__destroyIPNSt7__cxx1112basic_stringIcSt11char_traitsIcESaIcEEEEEvT_S9_(%"class.std::__cxx11::basic_string"* %4, %"class.std::__cxx11::basic_string"* %6) #7, !dbg !3873
  tail call void @_ZNSt12_Vector_baseINSt7__cxx1112basic_stringIcSt11char_traitsIcESaIcEEESaIS5_EED2Ev(%"struct.std::_Vector_base"* %2) #7, !dbg !3874
  ret void, !dbg !3875
}

; Function Attrs: minsize nounwind optsize sspstrong uwtable
define linkonce_odr hidden void @_ZN7mozilla9UniquePtrIN4base13LaunchOptions12ForkDelegateENS_13DefaultDeleteIS3_EEED2Ev(%"class.mozilla::UniquePtr"*) unnamed_addr #0 comdat align 2 !dbg !3876 {
  call void @llvm.dbg.value(metadata %"class.mozilla::UniquePtr"* %0, metadata !3878, metadata !DIExpression()), !dbg !3879
  call void @llvm.dbg.value(metadata %"class.mozilla::UniquePtr"* %0, metadata !3880, metadata !DIExpression()) #8, !dbg !3885
  call void @llvm.dbg.value(metadata %"struct.base::LaunchOptions::ForkDelegate"* null, metadata !3883, metadata !DIExpression()) #8, !dbg !3888
  call void @llvm.dbg.value(metadata %"class.mozilla::UniquePtr"* %0, metadata !3889, metadata !DIExpression()) #8, !dbg !3892
  call void @llvm.dbg.value(metadata %"class.mozilla::UniquePtr"* %0, metadata !3894, metadata !DIExpression()) #8, !dbg !3897
  %2 = getelementptr inbounds %"class.mozilla::UniquePtr", %"class.mozilla::UniquePtr"* %0, i64 0, i32 0, i32 0, i32 0, !dbg !3899
  %3 = load %"struct.base::LaunchOptions::ForkDelegate"*, %"struct.base::LaunchOptions::ForkDelegate"** %2, align 8, !dbg !3900
  call void @llvm.dbg.value(metadata %"struct.base::LaunchOptions::ForkDelegate"* %3, metadata !3884, metadata !DIExpression()) #8, !dbg !3901
  call void @llvm.dbg.value(metadata %"class.mozilla::UniquePtr"* %0, metadata !3889, metadata !DIExpression()) #8, !dbg !3902
  call void @llvm.dbg.value(metadata %"class.mozilla::UniquePtr"* %0, metadata !3894, metadata !DIExpression()) #8, !dbg !3904
  store %"struct.base::LaunchOptions::ForkDelegate"* null, %"struct.base::LaunchOptions::ForkDelegate"** %2, align 8, !dbg !3906
  %4 = icmp eq %"struct.base::LaunchOptions::ForkDelegate"* %3, null, !dbg !3907
  br i1 %4, label %10, label %5, !dbg !3909

; <label>:5:                                      ; preds = %1
  call void @llvm.dbg.value(metadata %"struct.base::LaunchOptions::ForkDelegate"* %3, metadata !3910, metadata !DIExpression()) #8, !dbg !3915
  %6 = bitcast %"struct.base::LaunchOptions::ForkDelegate"* %3 to void (%"struct.base::LaunchOptions::ForkDelegate"*)***, !dbg !3918
  %7 = load void (%"struct.base::LaunchOptions::ForkDelegate"*)**, void (%"struct.base::LaunchOptions::ForkDelegate"*)*** %6, align 8, !dbg !3918
  %8 = getelementptr inbounds void (%"struct.base::LaunchOptions::ForkDelegate"*)*, void (%"struct.base::LaunchOptions::ForkDelegate"*)** %7, i64 1, !dbg !3918
  %9 = load void (%"struct.base::LaunchOptions::ForkDelegate"*)*, void (%"struct.base::LaunchOptions::ForkDelegate"*)** %8, align 8, !dbg !3918
  tail call void %9(%"struct.base::LaunchOptions::ForkDelegate"* nonnull %3) #7, !dbg !3918
  br label %10, !dbg !3919

; <label>:10:                                     ; preds = %1, %5
  ret void, !dbg !3920
}

; Function Attrs: minsize nounwind optsize sspstrong uwtable
define linkonce_odr void @_ZNSt12_Vector_baseISt4pairIiiESaIS1_EED2Ev(%"struct.std::_Vector_base.7"*) unnamed_addr #0 comdat align 2 !dbg !3921 {
  call void @llvm.dbg.value(metadata %"struct.std::_Vector_base.7"* %0, metadata !3923, metadata !DIExpression()), !dbg !3925
  %2 = getelementptr inbounds %"struct.std::_Vector_base.7", %"struct.std::_Vector_base.7"* %0, i64 0, i32 0, i32 0, !dbg !3926
  %3 = load %"struct.std::pair"*, %"struct.std::pair"** %2, align 8, !dbg !3926
  call void @llvm.dbg.value(metadata %"struct.std::_Vector_base.7"* %0, metadata !3928, metadata !DIExpression()) #8, !dbg !3933
  call void @llvm.dbg.value(metadata %"struct.std::pair"* %3, metadata !3931, metadata !DIExpression()) #8, !dbg !3935
  %4 = icmp eq %"struct.std::pair"* %3, null, !dbg !3936
  br i1 %4, label %7, label %5, !dbg !3938

; <label>:5:                                      ; preds = %1
  call void @llvm.dbg.value(metadata %"struct.std::_Vector_base.7"* %0, metadata !3939, metadata !DIExpression()) #8, !dbg !3944
  call void @llvm.dbg.value(metadata %"struct.std::pair"* %3, metadata !3942, metadata !DIExpression()) #8, !dbg !3946
  call void @llvm.dbg.value(metadata %"struct.std::_Vector_base.7"* %0, metadata !3947, metadata !DIExpression()) #8, !dbg !3953
  call void @llvm.dbg.value(metadata %"struct.std::pair"* %3, metadata !3950, metadata !DIExpression()) #8, !dbg !3955
  %6 = bitcast %"struct.std::pair"* %3 to i8*, !dbg !3956
  call void @llvm.dbg.value(metadata i8* %6, metadata !3957, metadata !DIExpression()) #8, !dbg !3961
  tail call void @free(i8* %6) #7, !dbg !3963
  br label %7, !dbg !3964

; <label>:7:                                      ; preds = %1, %5
  ret void, !dbg !3965
}

; Function Attrs: minsize nounwind optsize
declare void @free(i8* nocapture) local_unnamed_addr #2

; Function Attrs: minsize nounwind optsize sspstrong uwtable
define linkonce_odr void @_ZNSt8_Rb_treeINSt7__cxx1112basic_stringIcSt11char_traitsIcESaIcEEESt4pairIKS5_S5_ESt10_Select1stIS8_ESt4lessIS5_ESaIS8_EED2Ev(%"class.std::_Rb_tree"*) unnamed_addr #0 comdat align 2 !dbg !3966 {
  call void @llvm.dbg.value(metadata %"class.std::_Rb_tree"* %0, metadata !3968, metadata !DIExpression()), !dbg !3969
  call void @llvm.dbg.value(metadata %"class.std::_Rb_tree"* %0, metadata !3970, metadata !DIExpression()), !dbg !3973
  %2 = getelementptr inbounds %"class.std::_Rb_tree", %"class.std::_Rb_tree"* %0, i64 0, i32 0, i32 0, i32 0, i32 0, !dbg !3976
  %3 = getelementptr inbounds i8, i8* %2, i64 16, !dbg !3977
  %4 = bitcast i8* %3 to %"struct.std::_Rb_tree_node"**, !dbg !3977
  %5 = load %"struct.std::_Rb_tree_node"*, %"struct.std::_Rb_tree_node"** %4, align 8, !dbg !3977
  tail call void @_ZNSt8_Rb_treeINSt7__cxx1112basic_stringIcSt11char_traitsIcESaIcEEESt4pairIKS5_S5_ESt10_Select1stIS8_ESt4lessIS5_ESaIS8_EE8_M_eraseEPSt13_Rb_tree_nodeIS8_E(%"class.std::_Rb_tree"* %0, %"struct.std::_Rb_tree_node"* %5) #9, !dbg !3978
  ret void, !dbg !3979
}

; Function Attrs: minsize nounwind optsize sspstrong uwtable
define linkonce_odr void @_ZNSt8_Rb_treeINSt7__cxx1112basic_stringIcSt11char_traitsIcESaIcEEESt4pairIKS5_S5_ESt10_Select1stIS8_ESt4lessIS5_ESaIS8_EE8_M_eraseEPSt13_Rb_tree_nodeIS8_E(%"class.std::_Rb_tree"*, %"struct.std::_Rb_tree_node"*) local_unnamed_addr #0 comdat align 2 !dbg !3980 {
  call void @llvm.dbg.value(metadata %"class.std::_Rb_tree"* %0, metadata !3982, metadata !DIExpression()), !dbg !3986
  call void @llvm.dbg.value(metadata %"struct.std::_Rb_tree_node"* %1, metadata !3983, metadata !DIExpression()), !dbg !3987
  br label %3, !dbg !3988

; <label>:3:                                      ; preds = %6, %2
  %4 = phi %"struct.std::_Rb_tree_node"* [ %1, %2 ], [ %12, %6 ]
  call void @llvm.dbg.value(metadata %"struct.std::_Rb_tree_node"* %4, metadata !3983, metadata !DIExpression()), !dbg !3987
  %5 = icmp eq %"struct.std::_Rb_tree_node"* %4, null, !dbg !3989
  br i1 %5, label %13, label %6, !dbg !3988

; <label>:6:                                      ; preds = %3
  call void @llvm.dbg.value(metadata %"struct.std::_Rb_tree_node"* %4, metadata !3990, metadata !DIExpression()), !dbg !3993
  %7 = getelementptr inbounds %"struct.std::_Rb_tree_node", %"struct.std::_Rb_tree_node"* %4, i64 0, i32 0, i32 3, !dbg !3995
  %8 = bitcast %"struct.std::_Rb_tree_node_base"** %7 to %"struct.std::_Rb_tree_node"**, !dbg !3995
  %9 = load %"struct.std::_Rb_tree_node"*, %"struct.std::_Rb_tree_node"** %8, align 8, !dbg !3995
  tail call void @_ZNSt8_Rb_treeINSt7__cxx1112basic_stringIcSt11char_traitsIcESaIcEEESt4pairIKS5_S5_ESt10_Select1stIS8_ESt4lessIS5_ESaIS8_EE8_M_eraseEPSt13_Rb_tree_nodeIS8_E(%"class.std::_Rb_tree"* %0, %"struct.std::_Rb_tree_node"* %9) #9, !dbg !3996
  call void @llvm.dbg.value(metadata %"struct.std::_Rb_tree_node"* %4, metadata !3997, metadata !DIExpression()), !dbg !4000
  %10 = getelementptr inbounds %"struct.std::_Rb_tree_node", %"struct.std::_Rb_tree_node"* %4, i64 0, i32 0, i32 2, !dbg !4002
  %11 = bitcast %"struct.std::_Rb_tree_node_base"** %10 to %"struct.std::_Rb_tree_node"**, !dbg !4002
  %12 = load %"struct.std::_Rb_tree_node"*, %"struct.std::_Rb_tree_node"** %11, align 8, !dbg !4002
  call void @llvm.dbg.value(metadata %"struct.std::_Rb_tree_node"* %12, metadata !3984, metadata !DIExpression()), !dbg !4003
  tail call void @_ZNSt8_Rb_treeINSt7__cxx1112basic_stringIcSt11char_traitsIcESaIcEEESt4pairIKS5_S5_ESt10_Select1stIS8_ESt4lessIS5_ESaIS8_EE12_M_drop_nodeEPSt13_Rb_tree_nodeIS8_E(%"class.std::_Rb_tree"* %0, %"struct.std::_Rb_tree_node"* nonnull %4) #7, !dbg !4004
  call void @llvm.dbg.value(metadata %"struct.std::_Rb_tree_node"* %12, metadata !3983, metadata !DIExpression()), !dbg !3987
  br label %3, !dbg !3988, !llvm.loop !4005

; <label>:13:                                     ; preds = %3
  ret void, !dbg !4007
}

; Function Attrs: minsize nounwind optsize sspstrong uwtable
define linkonce_odr void @_ZNSt8_Rb_treeINSt7__cxx1112basic_stringIcSt11char_traitsIcESaIcEEESt4pairIKS5_S5_ESt10_Select1stIS8_ESt4lessIS5_ESaIS8_EE12_M_drop_nodeEPSt13_Rb_tree_nodeIS8_E(%"class.std::_Rb_tree"*, %"struct.std::_Rb_tree_node"*) local_unnamed_addr #0 comdat align 2 !dbg !4008 {
  call void @llvm.dbg.value(metadata %"class.std::_Rb_tree"* %0, metadata !4010, metadata !DIExpression()), !dbg !4012
  call void @llvm.dbg.value(metadata %"struct.std::_Rb_tree_node"* %1, metadata !4011, metadata !DIExpression()), !dbg !4013
  call void @llvm.dbg.value(metadata %"class.std::_Rb_tree"* %0, metadata !4014, metadata !DIExpression()) #8, !dbg !4018
  call void @llvm.dbg.value(metadata %"struct.std::_Rb_tree_node"* %1, metadata !4017, metadata !DIExpression()) #8, !dbg !4020
  call void @llvm.dbg.value(metadata %"struct.std::_Rb_tree_node"* %1, metadata !4021, metadata !DIExpression()) #8, !dbg !4024
  %3 = getelementptr inbounds %"struct.std::_Rb_tree_node", %"struct.std::_Rb_tree_node"* %1, i64 0, i32 1, !dbg !4026
  call void @llvm.dbg.value(metadata %"struct.__gnu_cxx::__aligned_membuf"* %3, metadata !4027, metadata !DIExpression()) #8, !dbg !4031
  %4 = bitcast %"struct.__gnu_cxx::__aligned_membuf"* %3 to %"struct.std::pair.11"*, !dbg !4033
  call void @llvm.dbg.value(metadata %"class.std::_Rb_tree"* %0, metadata !4034, metadata !DIExpression()) #8, !dbg !4068
  call void @llvm.dbg.value(metadata %"struct.std::pair.11"* %4, metadata !4067, metadata !DIExpression()) #8, !dbg !4070
  call void @llvm.dbg.value(metadata %"class.std::_Rb_tree"* %0, metadata !4071, metadata !DIExpression()) #8, !dbg !4079
  call void @llvm.dbg.value(metadata %"struct.std::pair.11"* %4, metadata !4077, metadata !DIExpression()) #8, !dbg !4081
  tail call void @_ZNSt4pairIKNSt7__cxx1112basic_stringIcSt11char_traitsIcESaIcEEES5_ED2Ev(%"struct.std::pair.11"* nonnull %4) #7, !dbg !4082
  call void @llvm.dbg.value(metadata %"class.std::_Rb_tree"* %0, metadata !4083, metadata !DIExpression()) #8, !dbg !4087
  call void @llvm.dbg.value(metadata %"struct.std::_Rb_tree_node"* %1, metadata !4086, metadata !DIExpression()) #8, !dbg !4089
  call void @llvm.dbg.value(metadata %"class.std::_Rb_tree"* %0, metadata !4090, metadata !DIExpression()) #8, !dbg !4095
  call void @llvm.dbg.value(metadata %"struct.std::_Rb_tree_node"* %1, metadata !4093, metadata !DIExpression()) #8, !dbg !4097
  call void @llvm.dbg.value(metadata i64 1, metadata !4094, metadata !DIExpression()) #8, !dbg !4098
  call void @llvm.dbg.value(metadata %"class.std::_Rb_tree"* %0, metadata !4099, metadata !DIExpression()) #8, !dbg !4104
  call void @llvm.dbg.value(metadata %"struct.std::_Rb_tree_node"* %1, metadata !4102, metadata !DIExpression()) #8, !dbg !4106
  call void @llvm.dbg.value(metadata i64 1, metadata !4103, metadata !DIExpression()) #8, !dbg !4107
  %5 = bitcast %"struct.std::_Rb_tree_node"* %1 to i8*, !dbg !4108
  call void @llvm.dbg.value(metadata i8* %5, metadata !3957, metadata !DIExpression()) #8, !dbg !4109
  tail call void @free(i8* %5) #7, !dbg !4111
  ret void, !dbg !4112
}

; Function Attrs: inlinehint minsize nounwind optsize sspstrong uwtable
define linkonce_odr void @_ZNSt4pairIKNSt7__cxx1112basic_stringIcSt11char_traitsIcESaIcEEES5_ED2Ev(%"struct.std::pair.11"*) unnamed_addr #5 comdat align 2 !dbg !4113 {
  call void @llvm.dbg.value(metadata %"struct.std::pair.11"* %0, metadata !4118, metadata !DIExpression()), !dbg !4119
  %2 = getelementptr inbounds %"struct.std::pair.11", %"struct.std::pair.11"* %0, i64 0, i32 1, !dbg !4120
  call void @llvm.dbg.value(metadata %"class.std::__cxx11::basic_string"* %2, metadata !3635, metadata !DIExpression()) #8, !dbg !4122
  tail call void @_ZNSt7__cxx1112basic_stringIcSt11char_traitsIcESaIcEE10_M_disposeEv(%"class.std::__cxx11::basic_string"* nonnull %2) #7, !dbg !4124
  %3 = getelementptr inbounds %"struct.std::pair.11", %"struct.std::pair.11"* %0, i64 0, i32 0, !dbg !4120
  call void @llvm.dbg.value(metadata %"class.std::__cxx11::basic_string"* %3, metadata !3635, metadata !DIExpression()) #8, !dbg !4125
  tail call void @_ZNSt7__cxx1112basic_stringIcSt11char_traitsIcESaIcEE10_M_disposeEv(%"class.std::__cxx11::basic_string"* %3) #7, !dbg !4127
  ret void, !dbg !4128
}

; Function Attrs: minsize nounwind optsize sspstrong uwtable
declare void @_ZNSt7__cxx1112basic_stringIcSt11char_traitsIcESaIcEE10_M_disposeEv(%"class.std::__cxx11::basic_string"*) local_unnamed_addr #0 align 2

; Function Attrs: minsize nounwind optsize sspstrong uwtable
define linkonce_odr void @_ZNSt12_Vector_baseINSt7__cxx1112basic_stringIcSt11char_traitsIcESaIcEEESaIS5_EED2Ev(%"struct.std::_Vector_base"*) unnamed_addr #0 comdat align 2 !dbg !4129 {
  call void @llvm.dbg.value(metadata %"struct.std::_Vector_base"* %0, metadata !4131, metadata !DIExpression()), !dbg !4132
  %2 = getelementptr inbounds %"struct.std::_Vector_base", %"struct.std::_Vector_base"* %0, i64 0, i32 0, i32 0, !dbg !4133
  %3 = load %"class.std::__cxx11::basic_string"*, %"class.std::__cxx11::basic_string"** %2, align 8, !dbg !4133
  call void @llvm.dbg.value(metadata %"struct.std::_Vector_base"* %0, metadata !4135, metadata !DIExpression()) #8, !dbg !4140
  call void @llvm.dbg.value(metadata %"class.std::__cxx11::basic_string"* %3, metadata !4138, metadata !DIExpression()) #8, !dbg !4142
  %4 = icmp eq %"class.std::__cxx11::basic_string"* %3, null, !dbg !4143
  br i1 %4, label %7, label %5, !dbg !4145

; <label>:5:                                      ; preds = %1
  call void @llvm.dbg.value(metadata %"struct.std::_Vector_base"* %0, metadata !4146, metadata !DIExpression()) #8, !dbg !4151
  call void @llvm.dbg.value(metadata %"class.std::__cxx11::basic_string"* %3, metadata !4149, metadata !DIExpression()) #8, !dbg !4153
  call void @llvm.dbg.value(metadata %"struct.std::_Vector_base"* %0, metadata !4154, metadata !DIExpression()) #8, !dbg !4160
  call void @llvm.dbg.value(metadata %"class.std::__cxx11::basic_string"* %3, metadata !4157, metadata !DIExpression()) #8, !dbg !4162
  %6 = bitcast %"class.std::__cxx11::basic_string"* %3 to i8*, !dbg !4163
  call void @llvm.dbg.value(metadata i8* %6, metadata !3957, metadata !DIExpression()) #8, !dbg !4164
  tail call void @free(i8* %6) #7, !dbg !4166
  br label %7, !dbg !4167

; <label>:7:                                      ; preds = %1, %5
  ret void, !dbg !4168
}

; Function Attrs: minsize nounwind optsize sspstrong uwtable
define linkonce_odr void @_ZNSt12_Destroy_auxILb0EE9__destroyIPNSt7__cxx1112basic_stringIcSt11char_traitsIcESaIcEEEEEvT_S9_(%"class.std::__cxx11::basic_string"*, %"class.std::__cxx11::basic_string"*) local_unnamed_addr #0 comdat align 2 !dbg !4169 {
  call void @llvm.dbg.value(metadata %"class.std::__cxx11::basic_string"* %0, metadata !4174, metadata !DIExpression()), !dbg !4176
  call void @llvm.dbg.value(metadata %"class.std::__cxx11::basic_string"* %1, metadata !4175, metadata !DIExpression()), !dbg !4177
  br label %3, !dbg !4178

; <label>:3:                                      ; preds = %6, %2
  %4 = phi %"class.std::__cxx11::basic_string"* [ %0, %2 ], [ %7, %6 ]
  call void @llvm.dbg.value(metadata %"class.std::__cxx11::basic_string"* %4, metadata !4174, metadata !DIExpression()), !dbg !4176
  %5 = icmp eq %"class.std::__cxx11::basic_string"* %4, %1, !dbg !4179
  br i1 %5, label %8, label %6, !dbg !4182

; <label>:6:                                      ; preds = %3
  call void @llvm.dbg.value(metadata %"class.std::__cxx11::basic_string"* %4, metadata !4183, metadata !DIExpression()) #8, !dbg !4188
  call void @llvm.dbg.value(metadata %"class.std::__cxx11::basic_string"* %4, metadata !3635, metadata !DIExpression()) #8, !dbg !4190
  tail call void @_ZNSt7__cxx1112basic_stringIcSt11char_traitsIcESaIcEE10_M_disposeEv(%"class.std::__cxx11::basic_string"* %4) #7, !dbg !4192
  %7 = getelementptr inbounds %"class.std::__cxx11::basic_string", %"class.std::__cxx11::basic_string"* %4, i64 1, !dbg !4193
  call void @llvm.dbg.value(metadata %"class.std::__cxx11::basic_string"* %7, metadata !4174, metadata !DIExpression()), !dbg !4176
  br label %3, !dbg !4194, !llvm.loop !4195

; <label>:8:                                      ; preds = %3
  ret void, !dbg !4197
}

; Function Attrs: minsize noreturn optsize
declare extern_weak void @mozalloc_abort(i8*) local_unnamed_addr #6

; Function Attrs: minsize nounwind optsize sspstrong uwtable
define linkonce_odr void @_ZNSt6vectorINSt7__cxx1112basic_stringIcSt11char_traitsIcESaIcEEESaIS5_EE19_M_range_initializeIPKS5_EEvT_SB_St20forward_iterator_tag(%"class.std::vector"*, %"class.std::__cxx11::basic_string"*, %"class.std::__cxx11::basic_string"*) local_unnamed_addr #0 comdat align 2 !dbg !4198 {
  call void @llvm.dbg.value(metadata %"class.std::vector"* %0, metadata !4209, metadata !DIExpression()), !dbg !4215
  call void @llvm.dbg.value(metadata %"class.std::__cxx11::basic_string"* %1, metadata !4210, metadata !DIExpression()), !dbg !4216
  call void @llvm.dbg.value(metadata %"class.std::__cxx11::basic_string"* %2, metadata !4211, metadata !DIExpression()), !dbg !4217
  call void @llvm.dbg.value(metadata %"class.std::__cxx11::basic_string"* %1, metadata !4218, metadata !DIExpression()), !dbg !4231
  call void @llvm.dbg.value(metadata %"class.std::__cxx11::basic_string"* %2, metadata !4228, metadata !DIExpression()), !dbg !4233
  call void @llvm.dbg.value(metadata %"class.std::__cxx11::basic_string"* %1, metadata !4234, metadata !DIExpression()), !dbg !4249
  call void @llvm.dbg.value(metadata %"class.std::__cxx11::basic_string"* %2, metadata !4245, metadata !DIExpression()), !dbg !4251
  %4 = ptrtoint %"class.std::__cxx11::basic_string"* %2 to i64, !dbg !4252
  %5 = ptrtoint %"class.std::__cxx11::basic_string"* %1 to i64, !dbg !4252
  %6 = sub i64 %4, %5, !dbg !4252
  %7 = ashr exact i64 %6, 5, !dbg !4252
  call void @llvm.dbg.value(metadata i64 %7, metadata !4213, metadata !DIExpression()), !dbg !4253
  %8 = getelementptr inbounds %"class.std::vector", %"class.std::vector"* %0, i64 0, i32 0, !dbg !4254
  %9 = tail call %"class.std::__cxx11::basic_string"* @_ZNSt12_Vector_baseINSt7__cxx1112basic_stringIcSt11char_traitsIcESaIcEEESaIS5_EE11_M_allocateEm(%"struct.std::_Vector_base"* %8, i64 %7) #9, !dbg !4254
  %10 = getelementptr inbounds %"class.std::vector", %"class.std::vector"* %0, i64 0, i32 0, i32 0, i32 0, !dbg !4255
  store %"class.std::__cxx11::basic_string"* %9, %"class.std::__cxx11::basic_string"** %10, align 8, !dbg !4256
  %11 = getelementptr inbounds %"class.std::__cxx11::basic_string", %"class.std::__cxx11::basic_string"* %9, i64 %7, !dbg !4257
  %12 = getelementptr inbounds %"class.std::vector", %"class.std::vector"* %0, i64 0, i32 0, i32 0, i32 2, !dbg !4258
  store %"class.std::__cxx11::basic_string"* %11, %"class.std::__cxx11::basic_string"** %12, align 8, !dbg !4259
  call void @llvm.dbg.value(metadata %"class.std::__cxx11::basic_string"* %1, metadata !4260, metadata !DIExpression()) #8, !dbg !4270
  call void @llvm.dbg.value(metadata %"class.std::__cxx11::basic_string"* %2, metadata !4266, metadata !DIExpression()) #8, !dbg !4272
  call void @llvm.dbg.value(metadata %"class.std::__cxx11::basic_string"* %9, metadata !4267, metadata !DIExpression()) #8, !dbg !4273
  call void @llvm.dbg.value(metadata %"class.std::__cxx11::basic_string"* %1, metadata !4274, metadata !DIExpression()) #8, !dbg !4283
  call void @llvm.dbg.value(metadata %"class.std::__cxx11::basic_string"* %2, metadata !4279, metadata !DIExpression()) #8, !dbg !4285
  call void @llvm.dbg.value(metadata %"class.std::__cxx11::basic_string"* %9, metadata !4280, metadata !DIExpression()) #8, !dbg !4286
  call void @llvm.dbg.value(metadata i8 1, metadata !4281, metadata !DIExpression()) #8, !dbg !4287
  %13 = tail call %"class.std::__cxx11::basic_string"* @_ZNSt20__uninitialized_copyILb0EE13__uninit_copyIPKNSt7__cxx1112basic_stringIcSt11char_traitsIcESaIcEEEPS7_EET0_T_SC_SB_(%"class.std::__cxx11::basic_string"* %1, %"class.std::__cxx11::basic_string"* %2, %"class.std::__cxx11::basic_string"* %9) #7, !dbg !4288
  %14 = getelementptr inbounds %"class.std::vector", %"class.std::vector"* %0, i64 0, i32 0, i32 0, i32 1, !dbg !4289
  store %"class.std::__cxx11::basic_string"* %13, %"class.std::__cxx11::basic_string"** %14, align 8, !dbg !4290
  ret void, !dbg !4291
}

; Function Attrs: minsize nounwind optsize sspstrong uwtable
define linkonce_odr %"class.std::__cxx11::basic_string"* @_ZNSt12_Vector_baseINSt7__cxx1112basic_stringIcSt11char_traitsIcESaIcEEESaIS5_EE11_M_allocateEm(%"struct.std::_Vector_base"*, i64) local_unnamed_addr #0 comdat align 2 !dbg !4292 {
  call void @llvm.dbg.value(metadata %"struct.std::_Vector_base"* %0, metadata !4294, metadata !DIExpression()), !dbg !4296
  call void @llvm.dbg.value(metadata i64 %1, metadata !4295, metadata !DIExpression()), !dbg !4297
  %3 = icmp eq i64 %1, 0, !dbg !4298
  br i1 %3, label %7, label %4, !dbg !4299

; <label>:4:                                      ; preds = %2
  %5 = bitcast %"struct.std::_Vector_base"* %0 to %"class.std::allocator"*, !dbg !4300
  %6 = tail call %"class.std::__cxx11::basic_string"* @_ZNSt16allocator_traitsISaINSt7__cxx1112basic_stringIcSt11char_traitsIcESaIcEEEEE8allocateERS6_m(%"class.std::allocator"* dereferenceable(1) %5, i64 %1) #9, !dbg !4301
  br label %7, !dbg !4299

; <label>:7:                                      ; preds = %2, %4
  %8 = phi %"class.std::__cxx11::basic_string"* [ %6, %4 ], [ null, %2 ], !dbg !4299
  ret %"class.std::__cxx11::basic_string"* %8, !dbg !4302
}

; Function Attrs: minsize nounwind optsize sspstrong uwtable
define linkonce_odr %"class.std::__cxx11::basic_string"* @_ZNSt16allocator_traitsISaINSt7__cxx1112basic_stringIcSt11char_traitsIcESaIcEEEEE8allocateERS6_m(%"class.std::allocator"* dereferenceable(1), i64) local_unnamed_addr #0 comdat align 2 !dbg !4303 {
  call void @llvm.dbg.value(metadata %"class.std::allocator"* %0, metadata !4305, metadata !DIExpression()), !dbg !4307
  call void @llvm.dbg.value(metadata i64 %1, metadata !4306, metadata !DIExpression()), !dbg !4308
  %3 = bitcast %"class.std::allocator"* %0 to %"class.__gnu_cxx::new_allocator"*, !dbg !4309
  %4 = tail call %"class.std::__cxx11::basic_string"* @_ZN9__gnu_cxx13new_allocatorINSt7__cxx1112basic_stringIcSt11char_traitsIcESaIcEEEE8allocateEmPKv(%"class.__gnu_cxx::new_allocator"* nonnull %3, i64 %1, i8* null) #9, !dbg !4310
  ret %"class.std::__cxx11::basic_string"* %4, !dbg !4311
}

; Function Attrs: minsize nounwind optsize sspstrong uwtable
define linkonce_odr %"class.std::__cxx11::basic_string"* @_ZN9__gnu_cxx13new_allocatorINSt7__cxx1112basic_stringIcSt11char_traitsIcESaIcEEEE8allocateEmPKv(%"class.__gnu_cxx::new_allocator"*, i64, i8*) local_unnamed_addr #0 comdat align 2 !dbg !4312 {
  call void @llvm.dbg.value(metadata %"class.__gnu_cxx::new_allocator"* %0, metadata !4314, metadata !DIExpression()), !dbg !4317
  call void @llvm.dbg.value(metadata i64 %1, metadata !4315, metadata !DIExpression()), !dbg !4318
  call void @llvm.dbg.value(metadata i8* %2, metadata !4316, metadata !DIExpression()), !dbg !4319
  %4 = icmp ugt i64 %1, 576460752303423487, !dbg !4320
  br i1 %4, label %5, label %6, !dbg !4322

; <label>:5:                                      ; preds = %3
  tail call void @mozalloc_abort(i8* getelementptr inbounds ([27 x i8], [27 x i8]* @.str.5, i64 0, i64 0)) #10, !dbg !4323
  unreachable, !dbg !4323

; <label>:6:                                      ; preds = %3
  %7 = shl i64 %1, 5, !dbg !4327
  call void @llvm.dbg.value(metadata i64 %7, metadata !4328, metadata !DIExpression()) #8, !dbg !4331
  %8 = tail call noalias i8* @moz_xmalloc(i64 %7) #7, !dbg !4333
  %9 = bitcast i8* %8 to %"class.std::__cxx11::basic_string"*, !dbg !4334
  ret %"class.std::__cxx11::basic_string"* %9, !dbg !4335
}

; Function Attrs: minsize optsize
declare extern_weak noalias i8* @moz_xmalloc(i64) local_unnamed_addr #4

; Function Attrs: minsize nounwind optsize sspstrong uwtable
define linkonce_odr %"class.std::__cxx11::basic_string"* @_ZNSt20__uninitialized_copyILb0EE13__uninit_copyIPKNSt7__cxx1112basic_stringIcSt11char_traitsIcESaIcEEEPS7_EET0_T_SC_SB_(%"class.std::__cxx11::basic_string"*, %"class.std::__cxx11::basic_string"*, %"class.std::__cxx11::basic_string"*) local_unnamed_addr #0 comdat align 2 !dbg !4336 {
  call void @llvm.dbg.value(metadata %"class.std::__cxx11::basic_string"* %0, metadata !4342, metadata !DIExpression()), !dbg !4346
  call void @llvm.dbg.value(metadata %"class.std::__cxx11::basic_string"* %1, metadata !4343, metadata !DIExpression()), !dbg !4347
  call void @llvm.dbg.value(metadata %"class.std::__cxx11::basic_string"* %2, metadata !4344, metadata !DIExpression()), !dbg !4348
  call void @llvm.dbg.value(metadata %"class.std::__cxx11::basic_string"* %2, metadata !4345, metadata !DIExpression()), !dbg !4349
  br label %4, !dbg !4350

; <label>:4:                                      ; preds = %8, %3
  %5 = phi %"class.std::__cxx11::basic_string"* [ %0, %3 ], [ %9, %8 ]
  %6 = phi %"class.std::__cxx11::basic_string"* [ %2, %3 ], [ %10, %8 ], !dbg !4353
  call void @llvm.dbg.value(metadata %"class.std::__cxx11::basic_string"* %6, metadata !4345, metadata !DIExpression()), !dbg !4349
  call void @llvm.dbg.value(metadata %"class.std::__cxx11::basic_string"* %5, metadata !4342, metadata !DIExpression()), !dbg !4346
  %7 = icmp eq %"class.std::__cxx11::basic_string"* %5, %1, !dbg !4356
  br i1 %7, label %11, label %8, !dbg !4357

; <label>:8:                                      ; preds = %4
  call void @llvm.dbg.value(metadata %"class.std::__cxx11::basic_string"* %6, metadata !4358, metadata !DIExpression()) #8, !dbg !4369
  call void @llvm.dbg.value(metadata %"class.std::__cxx11::basic_string"* %5, metadata !4363, metadata !DIExpression()) #8, !dbg !4371
  tail call void @_ZNSt7__cxx1112basic_stringIcSt11char_traitsIcESaIcEEC2ERKS4_(%"class.std::__cxx11::basic_string"* %6, %"class.std::__cxx11::basic_string"* nonnull dereferenceable(32) %5) #7, !dbg !4372
  %9 = getelementptr inbounds %"class.std::__cxx11::basic_string", %"class.std::__cxx11::basic_string"* %5, i64 1, !dbg !4373
  call void @llvm.dbg.value(metadata %"class.std::__cxx11::basic_string"* %9, metadata !4342, metadata !DIExpression()), !dbg !4346
  %10 = getelementptr inbounds %"class.std::__cxx11::basic_string", %"class.std::__cxx11::basic_string"* %6, i64 1, !dbg !4374
  call void @llvm.dbg.value(metadata %"class.std::__cxx11::basic_string"* %10, metadata !4345, metadata !DIExpression()), !dbg !4349
  br label %4, !dbg !4375, !llvm.loop !4376

; <label>:11:                                     ; preds = %4
  call void @llvm.dbg.value(metadata %"class.std::__cxx11::basic_string"* %6, metadata !4345, metadata !DIExpression()), !dbg !4349
  call void @llvm.dbg.value(metadata %"class.std::__cxx11::basic_string"* %6, metadata !4345, metadata !DIExpression()), !dbg !4349
  call void @llvm.dbg.value(metadata %"class.std::__cxx11::basic_string"* %6, metadata !4345, metadata !DIExpression()), !dbg !4349
  call void @llvm.dbg.value(metadata %"class.std::__cxx11::basic_string"* %6, metadata !4345, metadata !DIExpression()), !dbg !4349
  call void @llvm.dbg.value(metadata %"class.std::__cxx11::basic_string"* %6, metadata !4345, metadata !DIExpression()), !dbg !4349
  call void @llvm.dbg.value(metadata %"class.std::__cxx11::basic_string"* %6, metadata !4345, metadata !DIExpression()), !dbg !4349
  ret %"class.std::__cxx11::basic_string"* %6, !dbg !4378
}

; Function Attrs: minsize nounwind optsize sspstrong uwtable
declare void @_ZNSt7__cxx1112basic_stringIcSt11char_traitsIcESaIcEEC2ERKS4_(%"class.std::__cxx11::basic_string"*, %"class.std::__cxx11::basic_string"* dereferenceable(32)) unnamed_addr #0 align 2

; Function Attrs: minsize nounwind optsize sspstrong uwtable
define linkonce_odr void @_ZNSt6vectorISt4pairIiiESaIS1_EE12emplace_backIJS1_EEEvDpOT_(%"class.std::vector.6"*, %"struct.std::pair"* dereferenceable(8)) local_unnamed_addr #0 comdat align 2 !dbg !4379 {
  call void @llvm.dbg.value(metadata %"class.std::vector.6"* %0, metadata !4388, metadata !DIExpression()), !dbg !4390
  call void @llvm.dbg.value(metadata %"struct.std::pair"* %1, metadata !4389, metadata !DIExpression()), !dbg !4391
  %3 = getelementptr inbounds %"class.std::vector.6", %"class.std::vector.6"* %0, i64 0, i32 0, i32 0, i32 1, !dbg !4392
  %4 = load %"struct.std::pair"*, %"struct.std::pair"** %3, align 8, !dbg !4392
  %5 = getelementptr inbounds %"class.std::vector.6", %"class.std::vector.6"* %0, i64 0, i32 0, i32 0, i32 2, !dbg !4394
  %6 = load %"struct.std::pair"*, %"struct.std::pair"** %5, align 8, !dbg !4394
  %7 = icmp eq %"struct.std::pair"* %4, %6, !dbg !4395
  br i1 %7, label %14, label %8, !dbg !4396

; <label>:8:                                      ; preds = %2
  call void @llvm.dbg.value(metadata %"class.std::vector.6"* %0, metadata !4397, metadata !DIExpression()), !dbg !4407
  call void @llvm.dbg.value(metadata %"struct.std::pair"* %4, metadata !4405, metadata !DIExpression()), !dbg !4410
  call void @llvm.dbg.value(metadata %"struct.std::pair"* %1, metadata !4406, metadata !DIExpression()), !dbg !4411
  call void @llvm.dbg.value(metadata %"class.std::vector.6"* %0, metadata !4412, metadata !DIExpression()), !dbg !4420
  call void @llvm.dbg.value(metadata %"struct.std::pair"* %4, metadata !4418, metadata !DIExpression()), !dbg !4422
  call void @llvm.dbg.value(metadata %"struct.std::pair"* %1, metadata !4419, metadata !DIExpression()), !dbg !4423
  %9 = bitcast %"struct.std::pair"* %1 to i64*, !dbg !4424
  %10 = bitcast %"struct.std::pair"* %4 to i64*, !dbg !4424
  %11 = load i64, i64* %9, align 4, !dbg !4424
  store i64 %11, i64* %10, align 4, !dbg !4424
  %12 = load %"struct.std::pair"*, %"struct.std::pair"** %3, align 8, !dbg !4425
  %13 = getelementptr inbounds %"struct.std::pair", %"struct.std::pair"* %12, i64 1, !dbg !4425
  store %"struct.std::pair"* %13, %"struct.std::pair"** %3, align 8, !dbg !4425
  br label %15, !dbg !4426

; <label>:14:                                     ; preds = %2
  tail call void @_ZNSt6vectorISt4pairIiiESaIS1_EE17_M_realloc_insertIJS1_EEEvN9__gnu_cxx17__normal_iteratorIPS1_S3_EEDpOT_(%"class.std::vector.6"* nonnull %0, %"struct.std::pair"* %4, %"struct.std::pair"* nonnull dereferenceable(8) %1) #9, !dbg !4427
  br label %15

; <label>:15:                                     ; preds = %14, %8
  ret void, !dbg !4428
}

; Function Attrs: minsize nounwind optsize sspstrong uwtable
define linkonce_odr void @_ZNSt6vectorISt4pairIiiESaIS1_EE17_M_realloc_insertIJS1_EEEvN9__gnu_cxx17__normal_iteratorIPS1_S3_EEDpOT_(%"class.std::vector.6"*, %"struct.std::pair"*, %"struct.std::pair"* dereferenceable(8)) local_unnamed_addr #0 comdat align 2 !dbg !4429 {
  %4 = ptrtoint %"struct.std::pair"* %1 to i64
  call void @llvm.dbg.value(metadata %"class.std::vector.6"* %0, metadata !4434, metadata !DIExpression()), !dbg !4443
  call void @llvm.dbg.value(metadata %"struct.std::pair"* %2, metadata !4436, metadata !DIExpression()), !dbg !4444
  %5 = tail call i64 @_ZNKSt6vectorISt4pairIiiESaIS1_EE12_M_check_lenEmPKc(%"class.std::vector.6"* %0, i64 1, i8* getelementptr inbounds ([26 x i8], [26 x i8]* @.str.6, i64 0, i64 0)) #9, !dbg !4445
  call void @llvm.dbg.value(metadata i64 %5, metadata !4437, metadata !DIExpression()), !dbg !4446
  %6 = getelementptr inbounds %"class.std::vector.6", %"class.std::vector.6"* %0, i64 0, i32 0, !dbg !4447
  %7 = getelementptr inbounds %"class.std::vector.6", %"class.std::vector.6"* %0, i64 0, i32 0, i32 0, i32 0, !dbg !4448
  %8 = load %"struct.std::pair"*, %"struct.std::pair"** %7, align 8, !dbg !4448
  call void @llvm.dbg.value(metadata %"struct.std::pair"* %8, metadata !4438, metadata !DIExpression()), !dbg !4449
  %9 = getelementptr inbounds %"class.std::vector.6", %"class.std::vector.6"* %0, i64 0, i32 0, i32 0, i32 1, !dbg !4450
  %10 = load %"struct.std::pair"*, %"struct.std::pair"** %9, align 8, !dbg !4450
  call void @llvm.dbg.value(metadata %"struct.std::pair"* %10, metadata !4439, metadata !DIExpression()), !dbg !4451
  %11 = ptrtoint %"struct.std::pair"* %8 to i64, !dbg !4452
  call void @llvm.dbg.value(metadata %"class.__gnu_cxx::__normal_iterator"* undef, metadata !4435, metadata !DIExpression(DW_OP_deref)), !dbg !4453
  call void @llvm.dbg.value(metadata %"class.__gnu_cxx::__normal_iterator"* undef, metadata !4454, metadata !DIExpression()), !dbg !4461
  call void @llvm.dbg.value(metadata %"class.__gnu_cxx::__normal_iterator"* undef, metadata !4460, metadata !DIExpression()), !dbg !4463
  %12 = sub i64 %4, %11, !dbg !4464
  %13 = ashr exact i64 %12, 3, !dbg !4464
  call void @llvm.dbg.value(metadata i64 %13, metadata !4440, metadata !DIExpression()), !dbg !4465
  %14 = tail call %"struct.std::pair"* @_ZNSt12_Vector_baseISt4pairIiiESaIS1_EE11_M_allocateEm(%"struct.std::_Vector_base.7"* %6, i64 %5) #9, !dbg !4466
  call void @llvm.dbg.value(metadata %"struct.std::pair"* %14, metadata !4441, metadata !DIExpression()), !dbg !4467
  call void @llvm.dbg.value(metadata %"struct.std::pair"* %14, metadata !4442, metadata !DIExpression()), !dbg !4468
  %15 = getelementptr inbounds %"struct.std::pair", %"struct.std::pair"* %14, i64 %13, !dbg !4469
  call void @llvm.dbg.value(metadata %"class.std::vector.6"* %0, metadata !4397, metadata !DIExpression()), !dbg !4472
  call void @llvm.dbg.value(metadata %"struct.std::pair"* %15, metadata !4405, metadata !DIExpression()), !dbg !4474
  call void @llvm.dbg.value(metadata %"struct.std::pair"* %2, metadata !4406, metadata !DIExpression()), !dbg !4475
  call void @llvm.dbg.value(metadata %"class.std::vector.6"* %0, metadata !4412, metadata !DIExpression()), !dbg !4476
  call void @llvm.dbg.value(metadata %"struct.std::pair"* %15, metadata !4418, metadata !DIExpression()), !dbg !4478
  call void @llvm.dbg.value(metadata %"struct.std::pair"* %2, metadata !4419, metadata !DIExpression()), !dbg !4479
  %16 = bitcast %"struct.std::pair"* %2 to i64*, !dbg !4480
  %17 = bitcast %"struct.std::pair"* %15 to i64*, !dbg !4480
  %18 = load i64, i64* %16, align 4, !dbg !4480
  store i64 %18, i64* %17, align 4, !dbg !4480
  call void @llvm.dbg.value(metadata %"struct.std::pair"* null, metadata !4442, metadata !DIExpression()), !dbg !4468
  call void @llvm.dbg.value(metadata %"class.__gnu_cxx::__normal_iterator"* undef, metadata !4435, metadata !DIExpression(DW_OP_deref)), !dbg !4453
  call void @llvm.dbg.value(metadata %"struct.std::pair"* %8, metadata !4481, metadata !DIExpression()), !dbg !4493
  call void @llvm.dbg.value(metadata %"struct.std::pair"* %1, metadata !4486, metadata !DIExpression()), !dbg !4495
  call void @llvm.dbg.value(metadata %"struct.std::pair"* %14, metadata !4487, metadata !DIExpression()), !dbg !4496
  call void @llvm.dbg.value(metadata %"struct.std::pair"* %8, metadata !4497, metadata !DIExpression()), !dbg !4507
  call void @llvm.dbg.value(metadata %"struct.std::pair"* %1, metadata !4502, metadata !DIExpression()), !dbg !4509
  call void @llvm.dbg.value(metadata %"struct.std::pair"* %14, metadata !4503, metadata !DIExpression()), !dbg !4510
  call void @llvm.dbg.value(metadata %"struct.std::pair"* %8, metadata !4511, metadata !DIExpression()), !dbg !4520
  call void @llvm.dbg.value(metadata %"struct.std::pair"* %1, metadata !4516, metadata !DIExpression()), !dbg !4522
  call void @llvm.dbg.value(metadata %"struct.std::pair"* %14, metadata !4517, metadata !DIExpression()), !dbg !4523
  call void @llvm.dbg.value(metadata i8 1, metadata !4518, metadata !DIExpression()), !dbg !4524
  call void @llvm.dbg.value(metadata %"struct.std::pair"* %14, metadata !4525, metadata !DIExpression()), !dbg !4532
  call void @llvm.dbg.value(metadata %"struct.std::pair"* %14, metadata !4531, metadata !DIExpression()), !dbg !4534
  br label %19, !dbg !4535

; <label>:19:                                     ; preds = %23, %3
  %20 = phi %"struct.std::pair"* [ %8, %3 ], [ %27, %23 ]
  %21 = phi %"struct.std::pair"* [ %14, %3 ], [ %28, %23 ], !dbg !4538
  call void @llvm.dbg.value(metadata %"struct.std::pair"* %21, metadata !4531, metadata !DIExpression()), !dbg !4534
  call void @llvm.dbg.value(metadata %"class.std::move_iterator"* undef, metadata !4529, metadata !DIExpression(DW_OP_deref)), !dbg !4541
  call void @llvm.dbg.value(metadata %"class.std::move_iterator"* undef, metadata !4530, metadata !DIExpression(DW_OP_deref)), !dbg !4542
  call void @llvm.dbg.value(metadata %"class.std::move_iterator"* undef, metadata !4543, metadata !DIExpression()), !dbg !4550
  call void @llvm.dbg.value(metadata %"class.std::move_iterator"* undef, metadata !4549, metadata !DIExpression()), !dbg !4552
  call void @llvm.dbg.value(metadata %"class.std::move_iterator"* undef, metadata !4553, metadata !DIExpression()), !dbg !4557
  call void @llvm.dbg.value(metadata %"class.std::move_iterator"* undef, metadata !4556, metadata !DIExpression()), !dbg !4559
  %22 = icmp eq %"struct.std::pair"* %20, %1, !dbg !4560
  br i1 %22, label %29, label %23, !dbg !4561

; <label>:23:                                     ; preds = %19
  call void @llvm.dbg.value(metadata %"class.std::move_iterator"* undef, metadata !4529, metadata !DIExpression(DW_OP_deref)), !dbg !4541
  call void @llvm.dbg.value(metadata %"struct.std::pair"* %21, metadata !4562, metadata !DIExpression()), !dbg !4570
  call void @llvm.dbg.value(metadata %"struct.std::pair"* %20, metadata !4567, metadata !DIExpression()), !dbg !4572
  %24 = bitcast %"struct.std::pair"* %20 to i64*, !dbg !4573
  %25 = bitcast %"struct.std::pair"* %21 to i64*, !dbg !4573
  %26 = load i64, i64* %24, align 4, !dbg !4573
  store i64 %26, i64* %25, align 4, !dbg !4573
  call void @llvm.dbg.value(metadata %"class.std::move_iterator"* undef, metadata !4529, metadata !DIExpression(DW_OP_deref)), !dbg !4541
  call void @llvm.dbg.value(metadata %"class.std::move_iterator"* undef, metadata !4574, metadata !DIExpression()), !dbg !4578
  %27 = getelementptr inbounds %"struct.std::pair", %"struct.std::pair"* %20, i64 1, !dbg !4580
  %28 = getelementptr inbounds %"struct.std::pair", %"struct.std::pair"* %21, i64 1, !dbg !4581
  call void @llvm.dbg.value(metadata %"struct.std::pair"* %28, metadata !4531, metadata !DIExpression()), !dbg !4534
  br label %19, !dbg !4582

; <label>:29:                                     ; preds = %19
  %30 = lshr i64 %12, 3, !dbg !4535
  %31 = getelementptr %"struct.std::pair", %"struct.std::pair"* %14, i64 %30, !dbg !4535
  call void @llvm.dbg.value(metadata %"struct.std::pair"* %31, metadata !4531, metadata !DIExpression()), !dbg !4534
  call void @llvm.dbg.value(metadata %"struct.std::pair"* %21, metadata !4531, metadata !DIExpression()), !dbg !4534
  call void @llvm.dbg.value(metadata %"struct.std::pair"* %31, metadata !4442, metadata !DIExpression()), !dbg !4468
  %32 = getelementptr inbounds %"struct.std::pair", %"struct.std::pair"* %31, i64 1, !dbg !4586
  call void @llvm.dbg.value(metadata %"struct.std::pair"* %32, metadata !4442, metadata !DIExpression()), !dbg !4468
  call void @llvm.dbg.value(metadata %"class.__gnu_cxx::__normal_iterator"* undef, metadata !4435, metadata !DIExpression(DW_OP_deref)), !dbg !4453
  call void @llvm.dbg.value(metadata %"struct.std::pair"* %1, metadata !4481, metadata !DIExpression()), !dbg !4587
  call void @llvm.dbg.value(metadata %"struct.std::pair"* %10, metadata !4486, metadata !DIExpression()), !dbg !4589
  call void @llvm.dbg.value(metadata %"struct.std::pair"* %32, metadata !4487, metadata !DIExpression()), !dbg !4590
  call void @llvm.dbg.value(metadata %"struct.std::pair"* %1, metadata !4497, metadata !DIExpression()), !dbg !4591
  call void @llvm.dbg.value(metadata %"struct.std::pair"* %10, metadata !4502, metadata !DIExpression()), !dbg !4593
  call void @llvm.dbg.value(metadata %"struct.std::pair"* %32, metadata !4503, metadata !DIExpression()), !dbg !4594
  call void @llvm.dbg.value(metadata %"struct.std::pair"* %1, metadata !4511, metadata !DIExpression()), !dbg !4595
  call void @llvm.dbg.value(metadata %"struct.std::pair"* %10, metadata !4516, metadata !DIExpression()), !dbg !4597
  call void @llvm.dbg.value(metadata %"struct.std::pair"* %32, metadata !4517, metadata !DIExpression()), !dbg !4598
  call void @llvm.dbg.value(metadata i8 1, metadata !4518, metadata !DIExpression()), !dbg !4599
  call void @llvm.dbg.value(metadata %"struct.std::pair"* %32, metadata !4525, metadata !DIExpression()), !dbg !4600
  call void @llvm.dbg.value(metadata %"struct.std::pair"* %32, metadata !4531, metadata !DIExpression()), !dbg !4602
  br label %33, !dbg !4603

; <label>:33:                                     ; preds = %37, %29
  %34 = phi %"struct.std::pair"* [ %1, %29 ], [ %41, %37 ]
  %35 = phi %"struct.std::pair"* [ %32, %29 ], [ %42, %37 ], !dbg !4604
  call void @llvm.dbg.value(metadata %"struct.std::pair"* %35, metadata !4531, metadata !DIExpression()), !dbg !4602
  call void @llvm.dbg.value(metadata %"class.std::move_iterator"* undef, metadata !4529, metadata !DIExpression(DW_OP_deref)), !dbg !4605
  call void @llvm.dbg.value(metadata %"class.std::move_iterator"* undef, metadata !4530, metadata !DIExpression(DW_OP_deref)), !dbg !4606
  call void @llvm.dbg.value(metadata %"class.std::move_iterator"* undef, metadata !4543, metadata !DIExpression()), !dbg !4607
  call void @llvm.dbg.value(metadata %"class.std::move_iterator"* undef, metadata !4549, metadata !DIExpression()), !dbg !4609
  call void @llvm.dbg.value(metadata %"class.std::move_iterator"* undef, metadata !4553, metadata !DIExpression()), !dbg !4610
  call void @llvm.dbg.value(metadata %"class.std::move_iterator"* undef, metadata !4556, metadata !DIExpression()), !dbg !4612
  %36 = icmp eq %"struct.std::pair"* %34, %10, !dbg !4613
  br i1 %36, label %43, label %37, !dbg !4614

; <label>:37:                                     ; preds = %33
  call void @llvm.dbg.value(metadata %"class.std::move_iterator"* undef, metadata !4529, metadata !DIExpression(DW_OP_deref)), !dbg !4605
  call void @llvm.dbg.value(metadata %"struct.std::pair"* %35, metadata !4562, metadata !DIExpression()), !dbg !4615
  call void @llvm.dbg.value(metadata %"struct.std::pair"* %34, metadata !4567, metadata !DIExpression()), !dbg !4617
  %38 = bitcast %"struct.std::pair"* %34 to i64*, !dbg !4618
  %39 = bitcast %"struct.std::pair"* %35 to i64*, !dbg !4618
  %40 = load i64, i64* %38, align 4, !dbg !4618
  store i64 %40, i64* %39, align 4, !dbg !4618
  call void @llvm.dbg.value(metadata %"class.std::move_iterator"* undef, metadata !4529, metadata !DIExpression(DW_OP_deref)), !dbg !4605
  call void @llvm.dbg.value(metadata %"class.std::move_iterator"* undef, metadata !4574, metadata !DIExpression()), !dbg !4619
  %41 = getelementptr inbounds %"struct.std::pair", %"struct.std::pair"* %34, i64 1, !dbg !4621
  %42 = getelementptr inbounds %"struct.std::pair", %"struct.std::pair"* %35, i64 1, !dbg !4622
  call void @llvm.dbg.value(metadata %"struct.std::pair"* %42, metadata !4531, metadata !DIExpression()), !dbg !4602
  br label %33, !dbg !4623

; <label>:43:                                     ; preds = %33
  %44 = ptrtoint %"struct.std::pair"* %10 to i64, !dbg !4603
  %45 = sub i64 %44, %4, !dbg !4603
  %46 = lshr i64 %45, 3, !dbg !4603
  %47 = getelementptr %"struct.std::pair", %"struct.std::pair"* %32, i64 %46, !dbg !4603
  call void @llvm.dbg.value(metadata %"struct.std::pair"* %47, metadata !4531, metadata !DIExpression()), !dbg !4602
  call void @llvm.dbg.value(metadata %"struct.std::pair"* %35, metadata !4531, metadata !DIExpression()), !dbg !4602
  call void @llvm.dbg.value(metadata %"struct.std::pair"* %47, metadata !4442, metadata !DIExpression()), !dbg !4468
  %48 = getelementptr inbounds %"class.std::vector.6", %"class.std::vector.6"* %0, i64 0, i32 0, i32 0, i32 2, !dbg !4624
  call void @llvm.dbg.value(metadata %"struct.std::_Vector_base.7"* %6, metadata !3928, metadata !DIExpression()) #8, !dbg !4625
  call void @llvm.dbg.value(metadata %"struct.std::pair"* %8, metadata !3931, metadata !DIExpression()) #8, !dbg !4627
  %49 = icmp eq %"struct.std::pair"* %8, null, !dbg !4628
  br i1 %49, label %52, label %50, !dbg !4629

; <label>:50:                                     ; preds = %43
  call void @llvm.dbg.value(metadata %"struct.std::_Vector_base.7"* %6, metadata !3939, metadata !DIExpression()) #8, !dbg !4630
  call void @llvm.dbg.value(metadata %"struct.std::pair"* %8, metadata !3942, metadata !DIExpression()) #8, !dbg !4632
  call void @llvm.dbg.value(metadata %"struct.std::_Vector_base.7"* %6, metadata !3947, metadata !DIExpression()) #8, !dbg !4633
  call void @llvm.dbg.value(metadata %"struct.std::pair"* %8, metadata !3950, metadata !DIExpression()) #8, !dbg !4635
  %51 = bitcast %"struct.std::pair"* %8 to i8*, !dbg !4636
  call void @llvm.dbg.value(metadata i8* %51, metadata !3957, metadata !DIExpression()) #8, !dbg !4637
  tail call void @free(i8* %51) #7, !dbg !4639
  br label %52, !dbg !4640

; <label>:52:                                     ; preds = %43, %50
  store %"struct.std::pair"* %14, %"struct.std::pair"** %7, align 8, !dbg !4641
  store %"struct.std::pair"* %47, %"struct.std::pair"** %9, align 8, !dbg !4642
  %53 = getelementptr inbounds %"struct.std::pair", %"struct.std::pair"* %14, i64 %5, !dbg !4643
  store %"struct.std::pair"* %53, %"struct.std::pair"** %48, align 8, !dbg !4644
  ret void, !dbg !4645
}

; Function Attrs: minsize nounwind optsize sspstrong uwtable
define linkonce_odr i64 @_ZNKSt6vectorISt4pairIiiESaIS1_EE12_M_check_lenEmPKc(%"class.std::vector.6"*, i64, i8*) local_unnamed_addr #0 comdat align 2 !dbg !4646 {
  call void @llvm.dbg.value(metadata %"class.std::vector.6"* %0, metadata !4648, metadata !DIExpression()), !dbg !4653
  call void @llvm.dbg.value(metadata i64 %1, metadata !4650, metadata !DIExpression()), !dbg !4654
  call void @llvm.dbg.value(metadata i8* %2, metadata !4651, metadata !DIExpression()), !dbg !4655
  call void @llvm.dbg.value(metadata %"class.std::vector.6"* %0, metadata !4656, metadata !DIExpression()), !dbg !4659
  %4 = getelementptr inbounds %"class.std::vector.6", %"class.std::vector.6"* %0, i64 0, i32 0, i32 0, i32 1, !dbg !4662
  %5 = bitcast %"struct.std::pair"** %4 to i64*, !dbg !4662
  %6 = load i64, i64* %5, align 8, !dbg !4662
  %7 = bitcast %"class.std::vector.6"* %0 to i64*, !dbg !4663
  %8 = load i64, i64* %7, align 8, !dbg !4663
  %9 = sub i64 %6, %8, !dbg !4664
  %10 = ashr exact i64 %9, 3, !dbg !4664
  %11 = sub nsw i64 2305843009213693951, %10, !dbg !4665
  call void @llvm.dbg.value(metadata i64 %1, metadata !4650, metadata !DIExpression()), !dbg !4654
  %12 = icmp ult i64 %11, %1, !dbg !4666
  br i1 %12, label %13, label %14, !dbg !4667

; <label>:13:                                     ; preds = %3
  call void @llvm.dbg.value(metadata i8* %2, metadata !4668, metadata !DIExpression()) #8, !dbg !4671
  tail call void @mozalloc_abort(i8* %2) #10, !dbg !4673
  unreachable, !dbg !4673

; <label>:14:                                     ; preds = %3
  call void @llvm.dbg.value(metadata %"class.std::vector.6"* %0, metadata !4656, metadata !DIExpression()), !dbg !4674
  call void @llvm.dbg.value(metadata %"class.std::vector.6"* %0, metadata !4656, metadata !DIExpression()), !dbg !4676
  %15 = icmp ult i64 %10, %1, !dbg !4678
  %16 = select i1 %15, i64 %1, i64 %10, !dbg !4693
  %17 = add i64 %16, %10, !dbg !4694
  call void @llvm.dbg.value(metadata i64 %17, metadata !4652, metadata !DIExpression()), !dbg !4695
  call void @llvm.dbg.value(metadata %"class.std::vector.6"* %0, metadata !4656, metadata !DIExpression()), !dbg !4696
  %18 = icmp ult i64 %17, %10, !dbg !4698
  %19 = icmp ugt i64 %17, 2305843009213693951, !dbg !4699
  %20 = or i1 %18, %19, !dbg !4700
  %21 = select i1 %20, i64 2305843009213693951, i64 %17, !dbg !4700
  ret i64 %21, !dbg !4701
}

; Function Attrs: minsize nounwind optsize sspstrong uwtable
define linkonce_odr %"struct.std::pair"* @_ZNSt12_Vector_baseISt4pairIiiESaIS1_EE11_M_allocateEm(%"struct.std::_Vector_base.7"*, i64) local_unnamed_addr #0 comdat align 2 !dbg !4702 {
  call void @llvm.dbg.value(metadata %"struct.std::_Vector_base.7"* %0, metadata !4704, metadata !DIExpression()), !dbg !4706
  call void @llvm.dbg.value(metadata i64 %1, metadata !4705, metadata !DIExpression()), !dbg !4707
  %3 = icmp eq i64 %1, 0, !dbg !4708
  br i1 %3, label %7, label %4, !dbg !4709

; <label>:4:                                      ; preds = %2
  %5 = bitcast %"struct.std::_Vector_base.7"* %0 to %"class.std::allocator.8"*, !dbg !4710
  %6 = tail call %"struct.std::pair"* @_ZNSt16allocator_traitsISaISt4pairIiiEEE8allocateERS2_m(%"class.std::allocator.8"* dereferenceable(1) %5, i64 %1) #9, !dbg !4711
  br label %7, !dbg !4709

; <label>:7:                                      ; preds = %2, %4
  %8 = phi %"struct.std::pair"* [ %6, %4 ], [ null, %2 ], !dbg !4709
  ret %"struct.std::pair"* %8, !dbg !4712
}

; Function Attrs: minsize nounwind optsize sspstrong uwtable
define linkonce_odr %"struct.std::pair"* @_ZNSt16allocator_traitsISaISt4pairIiiEEE8allocateERS2_m(%"class.std::allocator.8"* dereferenceable(1), i64) local_unnamed_addr #0 comdat align 2 !dbg !4713 {
  call void @llvm.dbg.value(metadata %"class.std::allocator.8"* %0, metadata !4715, metadata !DIExpression()), !dbg !4717
  call void @llvm.dbg.value(metadata i64 %1, metadata !4716, metadata !DIExpression()), !dbg !4718
  %3 = bitcast %"class.std::allocator.8"* %0 to %"class.__gnu_cxx::new_allocator.9"*, !dbg !4719
  %4 = tail call %"struct.std::pair"* @_ZN9__gnu_cxx13new_allocatorISt4pairIiiEE8allocateEmPKv(%"class.__gnu_cxx::new_allocator.9"* nonnull %3, i64 %1, i8* null) #9, !dbg !4720
  ret %"struct.std::pair"* %4, !dbg !4721
}

; Function Attrs: minsize nounwind optsize sspstrong uwtable
define linkonce_odr %"struct.std::pair"* @_ZN9__gnu_cxx13new_allocatorISt4pairIiiEE8allocateEmPKv(%"class.__gnu_cxx::new_allocator.9"*, i64, i8*) local_unnamed_addr #0 comdat align 2 !dbg !4722 {
  call void @llvm.dbg.value(metadata %"class.__gnu_cxx::new_allocator.9"* %0, metadata !4724, metadata !DIExpression()), !dbg !4727
  call void @llvm.dbg.value(metadata i64 %1, metadata !4725, metadata !DIExpression()), !dbg !4728
  call void @llvm.dbg.value(metadata i8* %2, metadata !4726, metadata !DIExpression()), !dbg !4729
  %4 = icmp ugt i64 %1, 2305843009213693951, !dbg !4730
  br i1 %4, label %5, label %6, !dbg !4732

; <label>:5:                                      ; preds = %3
  tail call void @mozalloc_abort(i8* getelementptr inbounds ([27 x i8], [27 x i8]* @.str.5, i64 0, i64 0)) #10, !dbg !4733
  unreachable, !dbg !4733

; <label>:6:                                      ; preds = %3
  %7 = shl i64 %1, 3, !dbg !4735
  call void @llvm.dbg.value(metadata i64 %7, metadata !4328, metadata !DIExpression()) #8, !dbg !4736
  %8 = tail call noalias i8* @moz_xmalloc(i64 %7) #7, !dbg !4738
  %9 = bitcast i8* %8 to %"struct.std::pair"*, !dbg !4739
  ret %"struct.std::pair"* %9, !dbg !4740
}

; Function Attrs: minsize nounwind optsize sspstrong uwtable
define linkonce_odr hidden void @_ZN7mozilla21ScopedCloseFileTraits7releaseEP8_IO_FILE(%struct._IO_FILE*) local_unnamed_addr #0 comdat align 2 !dbg !4741 {
  call void @llvm.dbg.value(metadata %struct._IO_FILE* %0, metadata !4743, metadata !DIExpression()), !dbg !4744
  %2 = icmp eq %struct._IO_FILE* %0, null, !dbg !4745
  br i1 %2, label %5, label %3, !dbg !4747

; <label>:3:                                      ; preds = %1
  %4 = tail call i32 @fclose(%struct._IO_FILE* nonnull %0) #9, !dbg !4748
  br label %5, !dbg !4750

; <label>:5:                                      ; preds = %1, %3
  ret void, !dbg !4751
}

; Function Attrs: minsize nounwind optsize
declare i32 @fclose(%struct._IO_FILE* nocapture) local_unnamed_addr #2

; Function Attrs: nounwind readnone speculatable
declare void @llvm.dbg.value(metadata, metadata, metadata) #1

; Function Attrs: argmemonly nounwind
declare void @llvm.memset.p0i8.i64(i8* nocapture writeonly, i8, i64, i1) #3

attributes #0 = { minsize nounwind optsize sspstrong uwtable "correctly-rounded-divide-sqrt-fp-math"="false" "disable-tail-calls"="false" "less-precise-fpmad"="false" "no-frame-pointer-elim"="false" "no-frame-pointer-elim-non-leaf" "no-infs-fp-math"="false" "no-jump-tables"="false" "no-nans-fp-math"="false" "no-signed-zeros-fp-math"="false" "no-trapping-math"="false" "stack-protector-buffer-size"="8" "target-cpu"="x86-64" "target-features"="+fxsr,+mmx,+sse,+sse2,+x87" "unsafe-fp-math"="false" "use-soft-float"="false" }
attributes #1 = { nounwind readnone speculatable }
attributes #2 = { minsize nounwind optsize "correctly-rounded-divide-sqrt-fp-math"="false" "disable-tail-calls"="false" "less-precise-fpmad"="false" "no-frame-pointer-elim"="false" "no-frame-pointer-elim-non-leaf" "no-infs-fp-math"="false" "no-nans-fp-math"="false" "no-signed-zeros-fp-math"="false" "no-trapping-math"="false" "stack-protector-buffer-size"="8" "target-cpu"="x86-64" "target-features"="+fxsr,+mmx,+sse,+sse2,+x87" "unsafe-fp-math"="false" "use-soft-float"="false" }
attributes #3 = { argmemonly nounwind }
attributes #4 = { minsize optsize "correctly-rounded-divide-sqrt-fp-math"="false" "disable-tail-calls"="false" "less-precise-fpmad"="false" "no-frame-pointer-elim"="false" "no-frame-pointer-elim-non-leaf" "no-infs-fp-math"="false" "no-nans-fp-math"="false" "no-signed-zeros-fp-math"="false" "no-trapping-math"="false" "stack-protector-buffer-size"="8" "target-cpu"="x86-64" "target-features"="+fxsr,+mmx,+sse,+sse2,+x87" "unsafe-fp-math"="false" "use-soft-float"="false" }
attributes #5 = { inlinehint minsize nounwind optsize sspstrong uwtable "correctly-rounded-divide-sqrt-fp-math"="false" "disable-tail-calls"="false" "less-precise-fpmad"="false" "no-frame-pointer-elim"="false" "no-frame-pointer-elim-non-leaf" "no-infs-fp-math"="false" "no-jump-tables"="false" "no-nans-fp-math"="false" "no-signed-zeros-fp-math"="false" "no-trapping-math"="false" "stack-protector-buffer-size"="8" "target-cpu"="x86-64" "target-features"="+fxsr,+mmx,+sse,+sse2,+x87" "unsafe-fp-math"="false" "use-soft-float"="false" }
attributes #6 = { minsize noreturn optsize "correctly-rounded-divide-sqrt-fp-math"="false" "disable-tail-calls"="false" "less-precise-fpmad"="false" "no-frame-pointer-elim"="false" "no-frame-pointer-elim-non-leaf" "no-infs-fp-math"="false" "no-nans-fp-math"="false" "no-signed-zeros-fp-math"="false" "no-trapping-math"="false" "stack-protector-buffer-size"="8" "target-cpu"="x86-64" "target-features"="+fxsr,+mmx,+sse,+sse2,+x87" "unsafe-fp-math"="false" "use-soft-float"="false" }
attributes #7 = { minsize nounwind optsize }
attributes #8 = { nounwind }
attributes #9 = { minsize optsize }
attributes #10 = { minsize noreturn nounwind optsize }

!llvm.dbg.cu = !{!0}
!llvm.module.flags = !{!2903, !2904, !2905, !2906}
!llvm.ident = !{!2907}

!0 = distinct !DICompileUnit(language: DW_LANG_C_plus_plus, file: !1, producer: "clang version 7.0.0 (tags/RELEASE_700/final)", isOptimized: true, runtimeVersion: 0, emissionKind: FullDebug, enums: !2, retainedTypes: !36, globals: !1567, imports: !1572)
!1 = !DIFile(filename: "/home/firefox/firefox/mozilla-unified/widget/LSBUtils.cpp", directory: "/home/firefox/firefox/mozilla-unified/obj-opt-x86_64-pc-linux-gnu/widget")
!2 = !{!3, !11, !17, !24, !29}
!3 = !DICompositeType(tag: DW_TAG_enumeration_type, name: "_Lock_policy", scope: !5, file: !4, line: 49, baseType: !6, size: 32, elements: !7, identifier: "_ZTSN9__gnu_cxx12_Lock_policyE")
!4 = !DIFile(filename: "/usr/bin/../lib64/gcc/x86_64-pc-linux-gnu/8.2.1/../../../../include/c++/8.2.1/ext/concurrence.h", directory: "/home/firefox/firefox/mozilla-unified/obj-opt-x86_64-pc-linux-gnu/widget")
!5 = !DINamespace(name: "__gnu_cxx", scope: null)
!6 = !DIBasicType(name: "unsigned int", size: 32, encoding: DW_ATE_unsigned)
!7 = !{!8, !9, !10}
!8 = !DIEnumerator(name: "_S_single", value: 0, isUnsigned: true)
!9 = !DIEnumerator(name: "_S_mutex", value: 1, isUnsigned: true)
!10 = !DIEnumerator(name: "_S_atomic", value: 2, isUnsigned: true)
!11 = !DICompositeType(tag: DW_TAG_enumeration_type, name: "_Rb_tree_color", scope: !13, file: !12, line: 99, baseType: !6, size: 32, elements: !14, identifier: "_ZTSSt14_Rb_tree_color")
!12 = !DIFile(filename: "/usr/bin/../lib64/gcc/x86_64-pc-linux-gnu/8.2.1/../../../../include/c++/8.2.1/bits/stl_tree.h", directory: "/home/firefox/firefox/mozilla-unified/obj-opt-x86_64-pc-linux-gnu/widget")
!13 = !DINamespace(name: "std", scope: null)
!14 = !{!15, !16}
!15 = !DIEnumerator(name: "_S_red", value: 0, isUnsigned: true)
!16 = !DIEnumerator(name: "_S_black", value: 1, isUnsigned: true)
!17 = !DICompositeType(tag: DW_TAG_enumeration_type, name: "StorageType", scope: !19, file: !18, line: 20, baseType: !6, size: 32, elements: !21, identifier: "_ZTSN7mozilla6detail11StorageTypeE")
!18 = !DIFile(filename: "/home/firefox/firefox/mozilla-unified/obj-opt-x86_64-pc-linux-gnu/dist/include/mozilla/Pair.h", directory: "/home/firefox/firefox/mozilla-unified/obj-opt-x86_64-pc-linux-gnu/widget")
!19 = !DINamespace(name: "detail", scope: !20)
!20 = !DINamespace(name: "mozilla", scope: null)
!21 = !{!22, !23}
!22 = !DIEnumerator(name: "AsBase", value: 0, isUnsigned: true)
!23 = !DIEnumerator(name: "AsMember", value: 1, isUnsigned: true)
!24 = !DICompositeType(tag: DW_TAG_enumeration_type, name: "Voidness", scope: !19, file: !25, line: 882, baseType: !6, size: 32, elements: !26, identifier: "_ZTSN7mozilla6detail8VoidnessE")
!25 = !DIFile(filename: "/home/firefox/firefox/mozilla-unified/obj-opt-x86_64-pc-linux-gnu/dist/include/mozilla/TypeTraits.h", directory: "/home/firefox/firefox/mozilla-unified/obj-opt-x86_64-pc-linux-gnu/widget")
!26 = !{!27, !28}
!27 = !DIEnumerator(name: "TIsVoid", value: 0, isUnsigned: true)
!28 = !DIEnumerator(name: "TIsNotVoid", value: 1, isUnsigned: true)
!29 = !DICompositeType(tag: DW_TAG_enumeration_type, scope: !31, file: !30, line: 158, baseType: !6, size: 32, elements: !34, identifier: "_ZTSNSt7__cxx1112basic_stringIcSt11char_traitsIcESaIcEEUt_E")
!30 = !DIFile(filename: "/usr/bin/../lib64/gcc/x86_64-pc-linux-gnu/8.2.1/../../../../include/c++/8.2.1/bits/basic_string.h", directory: "/home/firefox/firefox/mozilla-unified/obj-opt-x86_64-pc-linux-gnu/widget")
!31 = !DICompositeType(tag: DW_TAG_class_type, name: "basic_string<char, std::char_traits<char>, std::allocator<char> >", scope: !33, file: !32, line: 1607, flags: DIFlagFwdDecl, identifier: "_ZTSNSt7__cxx1112basic_stringIcSt11char_traitsIcESaIcEEE")
!32 = !DIFile(filename: "/usr/bin/../lib64/gcc/x86_64-pc-linux-gnu/8.2.1/../../../../include/c++/8.2.1/bits/basic_string.tcc", directory: "/home/firefox/firefox/mozilla-unified/obj-opt-x86_64-pc-linux-gnu/widget")
!33 = !DINamespace(name: "__cxx11", scope: !13, exportSymbols: true)
!34 = !{!35}
!35 = !DIEnumerator(name: "_S_local_capacity", value: 15, isUnsigned: true)
!36 = !{!37, !47, !302, !321, !506, !988, !1159, !1208, !178, !1008, !175, !1260, !1261, !1262, !70, !1518, !31, !951}
!37 = !DIDerivedType(tag: DW_TAG_typedef, name: "size_type", scope: !39, file: !38, line: 319, baseType: !40)
!38 = !DIFile(filename: "/home/firefox/firefox/mozilla-unified/obj-opt-x86_64-pc-linux-gnu/dist/include/nsTSubstring.h", directory: "/home/firefox/firefox/mozilla-unified/obj-opt-x86_64-pc-linux-gnu/widget")
!39 = !DICompositeType(tag: DW_TAG_class_type, name: "nsTSubstring<char>", file: !38, line: 1350, flags: DIFlagFwdDecl, identifier: "_ZTS12nsTSubstringIcE")
!40 = !DIDerivedType(tag: DW_TAG_typedef, name: "size_type", scope: !42, file: !41, line: 120, baseType: !43)
!41 = !DIFile(filename: "/home/firefox/firefox/mozilla-unified/obj-opt-x86_64-pc-linux-gnu/dist/include/nsTStringRepr.h", directory: "/home/firefox/firefox/mozilla-unified/obj-opt-x86_64-pc-linux-gnu/widget")
!42 = !DICompositeType(tag: DW_TAG_class_type, name: "nsTStringRepr<char>", scope: !19, file: !41, line: 304, flags: DIFlagFwdDecl, identifier: "_ZTSN7mozilla6detail13nsTStringReprIcEE")
!43 = !DIDerivedType(tag: DW_TAG_typedef, name: "uint32_t", file: !44, line: 26, baseType: !45)
!44 = !DIFile(filename: "/usr/include/bits/stdint-uintn.h", directory: "/home/firefox/firefox/mozilla-unified/obj-opt-x86_64-pc-linux-gnu/widget")
!45 = !DIDerivedType(tag: DW_TAG_typedef, name: "__uint32_t", file: !46, line: 41, baseType: !6)
!46 = !DIFile(filename: "/usr/include/bits/types.h", directory: "/home/firefox/firefox/mozilla-unified/obj-opt-x86_64-pc-linux-gnu/widget")
!47 = !DIDerivedType(tag: DW_TAG_pointer_type, baseType: !48, size: 64)
!48 = !DIDerivedType(tag: DW_TAG_typedef, name: "_Tp_alloc_type", scope: !50, file: !49, line: 84, baseType: !299)
!49 = !DIFile(filename: "/usr/bin/../lib64/gcc/x86_64-pc-linux-gnu/8.2.1/../../../../include/c++/8.2.1/bits/stl_vector.h", directory: "/home/firefox/firefox/mozilla-unified/obj-opt-x86_64-pc-linux-gnu/widget")
!50 = distinct !DICompositeType(tag: DW_TAG_structure_type, name: "_Vector_base<std::pair<int, int>, std::allocator<std::pair<int, int> > >", scope: !13, file: !49, line: 81, size: 192, flags: DIFlagTypePassByReference, elements: !51, templateParams: !298, identifier: "_ZTSSt12_Vector_baseISt4pairIiiESaIS1_EE")
!51 = !{!52, !252, !257, !262, !266, !269, !274, !277, !280, !283, !287, !290, !291, !294, !297}
!52 = !DIDerivedType(tag: DW_TAG_member, name: "_M_impl", scope: !50, file: !49, line: 290, baseType: !53, size: 192)
!53 = distinct !DICompositeType(tag: DW_TAG_structure_type, name: "_Vector_impl", scope: !50, file: !49, line: 88, size: 192, flags: DIFlagTypePassByReference, elements: !54, identifier: "_ZTSNSt12_Vector_baseISt4pairIiiESaIS1_EE12_Vector_implE")
!54 = !{!55, !56, !233, !234, !235, !239, !244, !248}
!55 = !DIDerivedType(tag: DW_TAG_inheritance, scope: !53, baseType: !48, extraData: i32 0)
!56 = !DIDerivedType(tag: DW_TAG_member, name: "_M_start", scope: !53, file: !49, line: 91, baseType: !57, size: 64)
!57 = !DIDerivedType(tag: DW_TAG_typedef, name: "pointer", scope: !50, file: !49, line: 86, baseType: !58)
!58 = !DIDerivedType(tag: DW_TAG_typedef, name: "pointer", scope: !60, file: !59, line: 59, baseType: !69)
!59 = !DIFile(filename: "/usr/bin/../lib64/gcc/x86_64-pc-linux-gnu/8.2.1/../../../../include/c++/8.2.1/ext/alloc_traits.h", directory: "/home/firefox/firefox/mozilla-unified/obj-opt-x86_64-pc-linux-gnu/widget")
!60 = distinct !DICompositeType(tag: DW_TAG_structure_type, name: "__alloc_traits<std::allocator<std::pair<int, int> >, std::pair<int, int> >", scope: !5, file: !59, line: 50, size: 8, flags: DIFlagTypePassByValue, elements: !61, templateParams: !231, identifier: "_ZTSN9__gnu_cxx14__alloc_traitsISaISt4pairIiiEES2_EE")
!61 = !{!62, !217, !220, !224, !227, !228, !229, !230}
!62 = !DIDerivedType(tag: DW_TAG_inheritance, scope: !60, baseType: !63, extraData: i32 0)
!63 = distinct !DICompositeType(tag: DW_TAG_structure_type, name: "allocator_traits<std::allocator<std::pair<int, int> > >", scope: !13, file: !64, line: 384, size: 8, flags: DIFlagTypePassByValue, elements: !65, templateParams: !215, identifier: "_ZTSSt16allocator_traitsISaISt4pairIiiEEE")
!64 = !DIFile(filename: "/usr/bin/../lib64/gcc/x86_64-pc-linux-gnu/8.2.1/../../../../include/c++/8.2.1/bits/alloc_traits.h", directory: "/home/firefox/firefox/mozilla-unified/obj-opt-x86_64-pc-linux-gnu/widget")
!65 = !{!66, !199, !203, !206, !212}
!66 = !DISubprogram(name: "allocate", linkageName: "_ZNSt16allocator_traitsISaISt4pairIiiEEE8allocateERS2_m", scope: !63, file: !64, line: 435, type: !67, isLocal: false, isDefinition: false, scopeLine: 435, flags: DIFlagPrototyped | DIFlagStaticMember, isOptimized: true)
!67 = !DISubroutineType(types: !68)
!68 = !{!69, !138, !198}
!69 = !DIDerivedType(tag: DW_TAG_typedef, name: "pointer", scope: !63, file: !64, line: 392, baseType: !70)
!70 = !DIDerivedType(tag: DW_TAG_pointer_type, baseType: !71, size: 64)
!71 = distinct !DICompositeType(tag: DW_TAG_structure_type, name: "pair<int, int>", scope: !13, file: !72, line: 208, size: 64, flags: DIFlagTypePassByValue, elements: !73, templateParams: !135, identifier: "_ZTSSt4pairIiiE")
!72 = !DIFile(filename: "/usr/bin/../lib64/gcc/x86_64-pc-linux-gnu/8.2.1/../../../../include/c++/8.2.1/bits/stl_pair.h", directory: "/home/firefox/firefox/mozilla-unified/obj-opt-x86_64-pc-linux-gnu/widget")
!73 = !{!74, !95, !96, !97, !103, !107, !123, !132}
!74 = !DIDerivedType(tag: DW_TAG_inheritance, scope: !71, baseType: !75, flags: DIFlagPrivate, extraData: i32 0)
!75 = distinct !DICompositeType(tag: DW_TAG_class_type, name: "__pair_base<int, int>", scope: !13, file: !72, line: 190, size: 8, flags: DIFlagTypePassByValue, elements: !76, templateParams: !91, identifier: "_ZTSSt11__pair_baseIiiE")
!76 = !{!77, !81, !82, !87}
!77 = !DISubprogram(name: "__pair_base", scope: !75, file: !72, line: 194, type: !78, isLocal: false, isDefinition: false, scopeLine: 194, flags: DIFlagPrototyped, isOptimized: true)
!78 = !DISubroutineType(types: !79)
!79 = !{null, !80}
!80 = !DIDerivedType(tag: DW_TAG_pointer_type, baseType: !75, size: 64, flags: DIFlagArtificial | DIFlagObjectPointer)
!81 = !DISubprogram(name: "~__pair_base", scope: !75, file: !72, line: 195, type: !78, isLocal: false, isDefinition: false, scopeLine: 195, flags: DIFlagPrototyped, isOptimized: true)
!82 = !DISubprogram(name: "__pair_base", scope: !75, file: !72, line: 196, type: !83, isLocal: false, isDefinition: false, scopeLine: 196, flags: DIFlagPrototyped, isOptimized: true)
!83 = !DISubroutineType(types: !84)
!84 = !{null, !80, !85}
!85 = !DIDerivedType(tag: DW_TAG_reference_type, baseType: !86, size: 64)
!86 = !DIDerivedType(tag: DW_TAG_const_type, baseType: !75)
!87 = !DISubprogram(name: "operator=", linkageName: "_ZNSt11__pair_baseIiiEaSERKS0_", scope: !75, file: !72, line: 197, type: !88, isLocal: false, isDefinition: false, scopeLine: 197, flags: DIFlagPrototyped, isOptimized: true)
!88 = !DISubroutineType(types: !89)
!89 = !{!90, !80, !85}
!90 = !DIDerivedType(tag: DW_TAG_reference_type, baseType: !75, size: 64)
!91 = !{!92, !94}
!92 = !DITemplateTypeParameter(name: "_U1", type: !93)
!93 = !DIBasicType(name: "int", size: 32, encoding: DW_ATE_signed)
!94 = !DITemplateTypeParameter(name: "_U2", type: !93)
!95 = !DIDerivedType(tag: DW_TAG_member, name: "first", scope: !71, file: !72, line: 214, baseType: !93, size: 32)
!96 = !DIDerivedType(tag: DW_TAG_member, name: "second", scope: !71, file: !72, line: 215, baseType: !93, size: 32, offset: 32)
!97 = !DISubprogram(name: "pair", scope: !71, file: !72, line: 303, type: !98, isLocal: false, isDefinition: false, scopeLine: 303, flags: DIFlagPrototyped, isOptimized: true)
!98 = !DISubroutineType(types: !99)
!99 = !{null, !100, !101}
!100 = !DIDerivedType(tag: DW_TAG_pointer_type, baseType: !71, size: 64, flags: DIFlagArtificial | DIFlagObjectPointer)
!101 = !DIDerivedType(tag: DW_TAG_reference_type, baseType: !102, size: 64)
!102 = !DIDerivedType(tag: DW_TAG_const_type, baseType: !71)
!103 = !DISubprogram(name: "pair", scope: !71, file: !72, line: 304, type: !104, isLocal: false, isDefinition: false, scopeLine: 304, flags: DIFlagPrototyped, isOptimized: true)
!104 = !DISubroutineType(types: !105)
!105 = !{null, !100, !106}
!106 = !DIDerivedType(tag: DW_TAG_rvalue_reference_type, baseType: !71, size: 64)
!107 = !DISubprogram(name: "operator=", linkageName: "_ZNSt4pairIiiEaSERKS0_", scope: !71, file: !72, line: 378, type: !108, isLocal: false, isDefinition: false, scopeLine: 378, flags: DIFlagPrototyped, isOptimized: true)
!108 = !DISubroutineType(types: !109)
!109 = !{!110, !100, !111}
!110 = !DIDerivedType(tag: DW_TAG_reference_type, baseType: !71, size: 64)
!111 = !DIDerivedType(tag: DW_TAG_typedef, name: "type", scope: !113, file: !112, line: 1970, baseType: !101)
!112 = !DIFile(filename: "/usr/bin/../lib64/gcc/x86_64-pc-linux-gnu/8.2.1/../../../../include/c++/8.2.1/type_traits", directory: "/home/firefox/firefox/mozilla-unified/obj-opt-x86_64-pc-linux-gnu/widget")
!113 = distinct !DICompositeType(tag: DW_TAG_structure_type, name: "conditional<true, const std::pair<int, int> &, const std::__nonesuch_no_braces &>", scope: !13, file: !112, line: 1969, size: 8, flags: DIFlagTypePassByValue, elements: !114, templateParams: !115, identifier: "_ZTSSt11conditionalILb1ERKSt4pairIiiERKSt20__nonesuch_no_bracesE")
!114 = !{}
!115 = !{!116, !118, !119}
!116 = !DITemplateValueParameter(name: "_Cond", type: !117, value: i8 1)
!117 = !DIBasicType(name: "bool", size: 8, encoding: DW_ATE_boolean)
!118 = !DITemplateTypeParameter(name: "_Iftrue", type: !101)
!119 = !DITemplateTypeParameter(name: "_Iffalse", type: !120)
!120 = !DIDerivedType(tag: DW_TAG_reference_type, baseType: !121, size: 64)
!121 = !DIDerivedType(tag: DW_TAG_const_type, baseType: !122)
!122 = !DICompositeType(tag: DW_TAG_structure_type, name: "__nonesuch_no_braces", scope: !13, file: !72, line: 185, flags: DIFlagFwdDecl, identifier: "_ZTSSt20__nonesuch_no_braces")
!123 = !DISubprogram(name: "operator=", linkageName: "_ZNSt4pairIiiEaSEOS0_", scope: !71, file: !72, line: 389, type: !124, isLocal: false, isDefinition: false, scopeLine: 389, flags: DIFlagPrototyped, isOptimized: true)
!124 = !DISubroutineType(types: !125)
!125 = !{!110, !100, !126}
!126 = !DIDerivedType(tag: DW_TAG_typedef, name: "type", scope: !127, file: !112, line: 1970, baseType: !106)
!127 = distinct !DICompositeType(tag: DW_TAG_structure_type, name: "conditional<true, std::pair<int, int> &&, std::__nonesuch_no_braces &&>", scope: !13, file: !112, line: 1969, size: 8, flags: DIFlagTypePassByValue, elements: !114, templateParams: !128, identifier: "_ZTSSt11conditionalILb1EOSt4pairIiiEOSt20__nonesuch_no_bracesE")
!128 = !{!116, !129, !130}
!129 = !DITemplateTypeParameter(name: "_Iftrue", type: !106)
!130 = !DITemplateTypeParameter(name: "_Iffalse", type: !131)
!131 = !DIDerivedType(tag: DW_TAG_rvalue_reference_type, baseType: !122, size: 64)
!132 = !DISubprogram(name: "swap", linkageName: "_ZNSt4pairIiiE4swapERS0_", scope: !71, file: !72, line: 424, type: !133, isLocal: false, isDefinition: false, scopeLine: 424, flags: DIFlagPrototyped, isOptimized: true)
!133 = !DISubroutineType(types: !134)
!134 = !{null, !100, !110}
!135 = !{!136, !137}
!136 = !DITemplateTypeParameter(name: "_T1", type: !93)
!137 = !DITemplateTypeParameter(name: "_T2", type: !93)
!138 = !DIDerivedType(tag: DW_TAG_reference_type, baseType: !139, size: 64)
!139 = !DIDerivedType(tag: DW_TAG_typedef, name: "allocator_type", scope: !63, file: !64, line: 387, baseType: !140)
!140 = distinct !DICompositeType(tag: DW_TAG_class_type, name: "allocator<std::pair<int, int> >", scope: !13, file: !141, line: 108, size: 8, flags: DIFlagTypePassByReference, elements: !142, templateParams: !186, identifier: "_ZTSSaISt4pairIiiEE")
!141 = !DIFile(filename: "/usr/bin/../lib64/gcc/x86_64-pc-linux-gnu/8.2.1/../../../../include/c++/8.2.1/bits/allocator.h", directory: "/home/firefox/firefox/mozilla-unified/obj-opt-x86_64-pc-linux-gnu/widget")
!142 = !{!143, !188, !192, !197}
!143 = !DIDerivedType(tag: DW_TAG_inheritance, scope: !140, baseType: !144, flags: DIFlagPublic, extraData: i32 0)
!144 = !DIDerivedType(tag: DW_TAG_typedef, name: "__allocator_base<std::pair<int, int> >", scope: !13, file: !145, line: 48, baseType: !146)
!145 = !DIFile(filename: "/usr/bin/../lib64/gcc/x86_64-pc-linux-gnu/8.2.1/../../../../include/c++/8.2.1/x86_64-pc-linux-gnu/bits/c++allocator.h", directory: "/home/firefox/firefox/mozilla-unified/obj-opt-x86_64-pc-linux-gnu/widget")
!146 = distinct !DICompositeType(tag: DW_TAG_class_type, name: "new_allocator<std::pair<int, int> >", scope: !5, file: !147, line: 58, size: 8, flags: DIFlagTypePassByReference, elements: !148, templateParams: !186, identifier: "_ZTSN9__gnu_cxx13new_allocatorISt4pairIiiEEE")
!147 = !DIFile(filename: "/usr/bin/../lib64/gcc/x86_64-pc-linux-gnu/8.2.1/../../../../include/c++/8.2.1/ext/new_allocator.h", directory: "/home/firefox/firefox/mozilla-unified/obj-opt-x86_64-pc-linux-gnu/widget")
!148 = !{!149, !153, !158, !159, !165, !171, !180, !183}
!149 = !DISubprogram(name: "new_allocator", scope: !146, file: !147, line: 79, type: !150, isLocal: false, isDefinition: false, scopeLine: 79, flags: DIFlagPublic | DIFlagPrototyped, isOptimized: true)
!150 = !DISubroutineType(types: !151)
!151 = !{null, !152}
!152 = !DIDerivedType(tag: DW_TAG_pointer_type, baseType: !146, size: 64, flags: DIFlagArtificial | DIFlagObjectPointer)
!153 = !DISubprogram(name: "new_allocator", scope: !146, file: !147, line: 81, type: !154, isLocal: false, isDefinition: false, scopeLine: 81, flags: DIFlagPublic | DIFlagPrototyped, isOptimized: true)
!154 = !DISubroutineType(types: !155)
!155 = !{null, !152, !156}
!156 = !DIDerivedType(tag: DW_TAG_reference_type, baseType: !157, size: 64)
!157 = !DIDerivedType(tag: DW_TAG_const_type, baseType: !146)
!158 = !DISubprogram(name: "~new_allocator", scope: !146, file: !147, line: 86, type: !150, isLocal: false, isDefinition: false, scopeLine: 86, flags: DIFlagPublic | DIFlagPrototyped, isOptimized: true)
!159 = !DISubprogram(name: "address", linkageName: "_ZNK9__gnu_cxx13new_allocatorISt4pairIiiEE7addressERS2_", scope: !146, file: !147, line: 89, type: !160, isLocal: false, isDefinition: false, scopeLine: 89, flags: DIFlagPublic | DIFlagPrototyped, isOptimized: true)
!160 = !DISubroutineType(types: !161)
!161 = !{!162, !163, !164}
!162 = !DIDerivedType(tag: DW_TAG_typedef, name: "pointer", scope: !146, file: !147, line: 63, baseType: !70)
!163 = !DIDerivedType(tag: DW_TAG_pointer_type, baseType: !157, size: 64, flags: DIFlagArtificial | DIFlagObjectPointer)
!164 = !DIDerivedType(tag: DW_TAG_typedef, name: "reference", scope: !146, file: !147, line: 65, baseType: !110)
!165 = !DISubprogram(name: "address", linkageName: "_ZNK9__gnu_cxx13new_allocatorISt4pairIiiEE7addressERKS2_", scope: !146, file: !147, line: 93, type: !166, isLocal: false, isDefinition: false, scopeLine: 93, flags: DIFlagPublic | DIFlagPrototyped, isOptimized: true)
!166 = !DISubroutineType(types: !167)
!167 = !{!168, !163, !170}
!168 = !DIDerivedType(tag: DW_TAG_typedef, name: "const_pointer", scope: !146, file: !147, line: 64, baseType: !169)
!169 = !DIDerivedType(tag: DW_TAG_pointer_type, baseType: !102, size: 64)
!170 = !DIDerivedType(tag: DW_TAG_typedef, name: "const_reference", scope: !146, file: !147, line: 66, baseType: !101)
!171 = !DISubprogram(name: "allocate", linkageName: "_ZN9__gnu_cxx13new_allocatorISt4pairIiiEE8allocateEmPKv", scope: !146, file: !147, line: 99, type: !172, isLocal: false, isDefinition: false, scopeLine: 99, flags: DIFlagPublic | DIFlagPrototyped, isOptimized: true)
!172 = !DISubroutineType(types: !173)
!173 = !{!162, !152, !174, !178}
!174 = !DIDerivedType(tag: DW_TAG_typedef, name: "size_type", file: !147, line: 61, baseType: !175)
!175 = !DIDerivedType(tag: DW_TAG_typedef, name: "size_t", scope: !13, file: !176, line: 238, baseType: !177)
!176 = !DIFile(filename: "/usr/bin/../lib64/gcc/x86_64-pc-linux-gnu/8.2.1/../../../../include/c++/8.2.1/x86_64-pc-linux-gnu/bits/c++config.h", directory: "/home/firefox/firefox/mozilla-unified/obj-opt-x86_64-pc-linux-gnu/widget")
!177 = !DIBasicType(name: "long unsigned int", size: 64, encoding: DW_ATE_unsigned)
!178 = !DIDerivedType(tag: DW_TAG_pointer_type, baseType: !179, size: 64)
!179 = !DIDerivedType(tag: DW_TAG_const_type, baseType: null)
!180 = !DISubprogram(name: "deallocate", linkageName: "_ZN9__gnu_cxx13new_allocatorISt4pairIiiEE10deallocateEPS2_m", scope: !146, file: !147, line: 116, type: !181, isLocal: false, isDefinition: false, scopeLine: 116, flags: DIFlagPublic | DIFlagPrototyped, isOptimized: true)
!181 = !DISubroutineType(types: !182)
!182 = !{null, !152, !162, !174}
!183 = !DISubprogram(name: "max_size", linkageName: "_ZNK9__gnu_cxx13new_allocatorISt4pairIiiEE8max_sizeEv", scope: !146, file: !147, line: 129, type: !184, isLocal: false, isDefinition: false, scopeLine: 129, flags: DIFlagPublic | DIFlagPrototyped, isOptimized: true)
!184 = !DISubroutineType(types: !185)
!185 = !{!174, !163}
!186 = !{!187}
!187 = !DITemplateTypeParameter(name: "_Tp", type: !71)
!188 = !DISubprogram(name: "allocator", scope: !140, file: !141, line: 131, type: !189, isLocal: false, isDefinition: false, scopeLine: 131, flags: DIFlagPublic | DIFlagPrototyped, isOptimized: true)
!189 = !DISubroutineType(types: !190)
!190 = !{null, !191}
!191 = !DIDerivedType(tag: DW_TAG_pointer_type, baseType: !140, size: 64, flags: DIFlagArtificial | DIFlagObjectPointer)
!192 = !DISubprogram(name: "allocator", scope: !140, file: !141, line: 133, type: !193, isLocal: false, isDefinition: false, scopeLine: 133, flags: DIFlagPublic | DIFlagPrototyped, isOptimized: true)
!193 = !DISubroutineType(types: !194)
!194 = !{null, !191, !195}
!195 = !DIDerivedType(tag: DW_TAG_reference_type, baseType: !196, size: 64)
!196 = !DIDerivedType(tag: DW_TAG_const_type, baseType: !140)
!197 = !DISubprogram(name: "~allocator", scope: !140, file: !141, line: 139, type: !189, isLocal: false, isDefinition: false, scopeLine: 139, flags: DIFlagPublic | DIFlagPrototyped, isOptimized: true)
!198 = !DIDerivedType(tag: DW_TAG_typedef, name: "size_type", file: !64, line: 407, baseType: !175)
!199 = !DISubprogram(name: "allocate", linkageName: "_ZNSt16allocator_traitsISaISt4pairIiiEEE8allocateERS2_mPKv", scope: !63, file: !64, line: 449, type: !200, isLocal: false, isDefinition: false, scopeLine: 449, flags: DIFlagPrototyped | DIFlagStaticMember, isOptimized: true)
!200 = !DISubroutineType(types: !201)
!201 = !{!69, !138, !198, !202}
!202 = !DIDerivedType(tag: DW_TAG_typedef, name: "const_void_pointer", file: !64, line: 401, baseType: !178)
!203 = !DISubprogram(name: "deallocate", linkageName: "_ZNSt16allocator_traitsISaISt4pairIiiEEE10deallocateERS2_PS1_m", scope: !63, file: !64, line: 461, type: !204, isLocal: false, isDefinition: false, scopeLine: 461, flags: DIFlagPrototyped | DIFlagStaticMember, isOptimized: true)
!204 = !DISubroutineType(types: !205)
!205 = !{null, !138, !69, !198}
!206 = !DISubprogram(name: "max_size", linkageName: "_ZNSt16allocator_traitsISaISt4pairIiiEEE8max_sizeERKS2_", scope: !63, file: !64, line: 495, type: !207, isLocal: false, isDefinition: false, scopeLine: 495, flags: DIFlagPrototyped | DIFlagStaticMember, isOptimized: true)
!207 = !DISubroutineType(types: !208)
!208 = !{!209, !210}
!209 = !DIDerivedType(tag: DW_TAG_typedef, name: "size_type", scope: !63, file: !64, line: 407, baseType: !175)
!210 = !DIDerivedType(tag: DW_TAG_reference_type, baseType: !211, size: 64)
!211 = !DIDerivedType(tag: DW_TAG_const_type, baseType: !139)
!212 = !DISubprogram(name: "select_on_container_copy_construction", linkageName: "_ZNSt16allocator_traitsISaISt4pairIiiEEE37select_on_container_copy_constructionERKS2_", scope: !63, file: !64, line: 504, type: !213, isLocal: false, isDefinition: false, scopeLine: 504, flags: DIFlagPrototyped | DIFlagStaticMember, isOptimized: true)
!213 = !DISubroutineType(types: !214)
!214 = !{!139, !210}
!215 = !{!216}
!216 = !DITemplateTypeParameter(name: "_Alloc", type: !140)
!217 = !DISubprogram(name: "_S_select_on_copy", linkageName: "_ZN9__gnu_cxx14__alloc_traitsISaISt4pairIiiEES2_E17_S_select_on_copyERKS3_", scope: !60, file: !59, line: 94, type: !218, isLocal: false, isDefinition: false, scopeLine: 94, flags: DIFlagPrototyped | DIFlagStaticMember, isOptimized: true)
!218 = !DISubroutineType(types: !219)
!219 = !{!140, !195}
!220 = !DISubprogram(name: "_S_on_swap", linkageName: "_ZN9__gnu_cxx14__alloc_traitsISaISt4pairIiiEES2_E10_S_on_swapERS3_S5_", scope: !60, file: !59, line: 97, type: !221, isLocal: false, isDefinition: false, scopeLine: 97, flags: DIFlagPrototyped | DIFlagStaticMember, isOptimized: true)
!221 = !DISubroutineType(types: !222)
!222 = !{null, !223, !223}
!223 = !DIDerivedType(tag: DW_TAG_reference_type, baseType: !140, size: 64)
!224 = !DISubprogram(name: "_S_propagate_on_copy_assign", linkageName: "_ZN9__gnu_cxx14__alloc_traitsISaISt4pairIiiEES2_E27_S_propagate_on_copy_assignEv", scope: !60, file: !59, line: 100, type: !225, isLocal: false, isDefinition: false, scopeLine: 100, flags: DIFlagPrototyped | DIFlagStaticMember, isOptimized: true)
!225 = !DISubroutineType(types: !226)
!226 = !{!117}
!227 = !DISubprogram(name: "_S_propagate_on_move_assign", linkageName: "_ZN9__gnu_cxx14__alloc_traitsISaISt4pairIiiEES2_E27_S_propagate_on_move_assignEv", scope: !60, file: !59, line: 103, type: !225, isLocal: false, isDefinition: false, scopeLine: 103, flags: DIFlagPrototyped | DIFlagStaticMember, isOptimized: true)
!228 = !DISubprogram(name: "_S_propagate_on_swap", linkageName: "_ZN9__gnu_cxx14__alloc_traitsISaISt4pairIiiEES2_E20_S_propagate_on_swapEv", scope: !60, file: !59, line: 106, type: !225, isLocal: false, isDefinition: false, scopeLine: 106, flags: DIFlagPrototyped | DIFlagStaticMember, isOptimized: true)
!229 = !DISubprogram(name: "_S_always_equal", linkageName: "_ZN9__gnu_cxx14__alloc_traitsISaISt4pairIiiEES2_E15_S_always_equalEv", scope: !60, file: !59, line: 109, type: !225, isLocal: false, isDefinition: false, scopeLine: 109, flags: DIFlagPrototyped | DIFlagStaticMember, isOptimized: true)
!230 = !DISubprogram(name: "_S_nothrow_move", linkageName: "_ZN9__gnu_cxx14__alloc_traitsISaISt4pairIiiEES2_E15_S_nothrow_moveEv", scope: !60, file: !59, line: 112, type: !225, isLocal: false, isDefinition: false, scopeLine: 112, flags: DIFlagPrototyped | DIFlagStaticMember, isOptimized: true)
!231 = !{!216, !232}
!232 = !DITemplateTypeParameter(type: !71)
!233 = !DIDerivedType(tag: DW_TAG_member, name: "_M_finish", scope: !53, file: !49, line: 92, baseType: !57, size: 64, offset: 64)
!234 = !DIDerivedType(tag: DW_TAG_member, name: "_M_end_of_storage", scope: !53, file: !49, line: 93, baseType: !57, size: 64, offset: 128)
!235 = !DISubprogram(name: "_Vector_impl", scope: !53, file: !49, line: 95, type: !236, isLocal: false, isDefinition: false, scopeLine: 95, flags: DIFlagPrototyped, isOptimized: true)
!236 = !DISubroutineType(types: !237)
!237 = !{null, !238}
!238 = !DIDerivedType(tag: DW_TAG_pointer_type, baseType: !53, size: 64, flags: DIFlagArtificial | DIFlagObjectPointer)
!239 = !DISubprogram(name: "_Vector_impl", scope: !53, file: !49, line: 99, type: !240, isLocal: false, isDefinition: false, scopeLine: 99, flags: DIFlagPrototyped, isOptimized: true)
!240 = !DISubroutineType(types: !241)
!241 = !{null, !238, !242}
!242 = !DIDerivedType(tag: DW_TAG_reference_type, baseType: !243, size: 64)
!243 = !DIDerivedType(tag: DW_TAG_const_type, baseType: !48)
!244 = !DISubprogram(name: "_Vector_impl", scope: !53, file: !49, line: 104, type: !245, isLocal: false, isDefinition: false, scopeLine: 104, flags: DIFlagPrototyped, isOptimized: true)
!245 = !DISubroutineType(types: !246)
!246 = !{null, !238, !247}
!247 = !DIDerivedType(tag: DW_TAG_rvalue_reference_type, baseType: !48, size: 64)
!248 = !DISubprogram(name: "_M_swap_data", linkageName: "_ZNSt12_Vector_baseISt4pairIiiESaIS1_EE12_Vector_impl12_M_swap_dataERS4_", scope: !53, file: !49, line: 110, type: !249, isLocal: false, isDefinition: false, scopeLine: 110, flags: DIFlagPrototyped, isOptimized: true)
!249 = !DISubroutineType(types: !250)
!250 = !{null, !238, !251}
!251 = !DIDerivedType(tag: DW_TAG_reference_type, baseType: !53, size: 64)
!252 = !DISubprogram(name: "_M_get_Tp_allocator", linkageName: "_ZNSt12_Vector_baseISt4pairIiiESaIS1_EE19_M_get_Tp_allocatorEv", scope: !50, file: !49, line: 237, type: !253, isLocal: false, isDefinition: false, scopeLine: 237, flags: DIFlagPrototyped, isOptimized: true)
!253 = !DISubroutineType(types: !254)
!254 = !{!255, !256}
!255 = !DIDerivedType(tag: DW_TAG_reference_type, baseType: !48, size: 64)
!256 = !DIDerivedType(tag: DW_TAG_pointer_type, baseType: !50, size: 64, flags: DIFlagArtificial | DIFlagObjectPointer)
!257 = !DISubprogram(name: "_M_get_Tp_allocator", linkageName: "_ZNKSt12_Vector_baseISt4pairIiiESaIS1_EE19_M_get_Tp_allocatorEv", scope: !50, file: !49, line: 241, type: !258, isLocal: false, isDefinition: false, scopeLine: 241, flags: DIFlagPrototyped, isOptimized: true)
!258 = !DISubroutineType(types: !259)
!259 = !{!242, !260}
!260 = !DIDerivedType(tag: DW_TAG_pointer_type, baseType: !261, size: 64, flags: DIFlagArtificial | DIFlagObjectPointer)
!261 = !DIDerivedType(tag: DW_TAG_const_type, baseType: !50)
!262 = !DISubprogram(name: "get_allocator", linkageName: "_ZNKSt12_Vector_baseISt4pairIiiESaIS1_EE13get_allocatorEv", scope: !50, file: !49, line: 245, type: !263, isLocal: false, isDefinition: false, scopeLine: 245, flags: DIFlagPrototyped, isOptimized: true)
!263 = !DISubroutineType(types: !264)
!264 = !{!265, !260}
!265 = !DIDerivedType(tag: DW_TAG_typedef, name: "allocator_type", scope: !50, file: !49, line: 234, baseType: !140)
!266 = !DISubprogram(name: "_Vector_base", scope: !50, file: !49, line: 248, type: !267, isLocal: false, isDefinition: false, scopeLine: 248, flags: DIFlagPrototyped, isOptimized: true)
!267 = !DISubroutineType(types: !268)
!268 = !{null, !256}
!269 = !DISubprogram(name: "_Vector_base", scope: !50, file: !49, line: 251, type: !270, isLocal: false, isDefinition: false, scopeLine: 251, flags: DIFlagPrototyped, isOptimized: true)
!270 = !DISubroutineType(types: !271)
!271 = !{null, !256, !272}
!272 = !DIDerivedType(tag: DW_TAG_reference_type, baseType: !273, size: 64)
!273 = !DIDerivedType(tag: DW_TAG_const_type, baseType: !265)
!274 = !DISubprogram(name: "_Vector_base", scope: !50, file: !49, line: 254, type: !275, isLocal: false, isDefinition: false, scopeLine: 254, flags: DIFlagPrototyped, isOptimized: true)
!275 = !DISubroutineType(types: !276)
!276 = !{null, !256, !175}
!277 = !DISubprogram(name: "_Vector_base", scope: !50, file: !49, line: 258, type: !278, isLocal: false, isDefinition: false, scopeLine: 258, flags: DIFlagPrototyped, isOptimized: true)
!278 = !DISubroutineType(types: !279)
!279 = !{null, !256, !175, !272}
!280 = !DISubprogram(name: "_Vector_base", scope: !50, file: !49, line: 263, type: !281, isLocal: false, isDefinition: false, scopeLine: 263, flags: DIFlagPrototyped, isOptimized: true)
!281 = !DISubroutineType(types: !282)
!282 = !{null, !256, !247}
!283 = !DISubprogram(name: "_Vector_base", scope: !50, file: !49, line: 266, type: !284, isLocal: false, isDefinition: false, scopeLine: 266, flags: DIFlagPrototyped, isOptimized: true)
!284 = !DISubroutineType(types: !285)
!285 = !{null, !256, !286}
!286 = !DIDerivedType(tag: DW_TAG_rvalue_reference_type, baseType: !50, size: 64)
!287 = !DISubprogram(name: "_Vector_base", scope: !50, file: !49, line: 270, type: !288, isLocal: false, isDefinition: false, scopeLine: 270, flags: DIFlagPrototyped, isOptimized: true)
!288 = !DISubroutineType(types: !289)
!289 = !{null, !256, !286, !272}
!290 = !DISubprogram(name: "~_Vector_base", scope: !50, file: !49, line: 283, type: !267, isLocal: false, isDefinition: false, scopeLine: 283, flags: DIFlagPrototyped, isOptimized: true)
!291 = !DISubprogram(name: "_M_allocate", linkageName: "_ZNSt12_Vector_baseISt4pairIiiESaIS1_EE11_M_allocateEm", scope: !50, file: !49, line: 293, type: !292, isLocal: false, isDefinition: false, scopeLine: 293, flags: DIFlagPrototyped, isOptimized: true)
!292 = !DISubroutineType(types: !293)
!293 = !{!57, !256, !175}
!294 = !DISubprogram(name: "_M_deallocate", linkageName: "_ZNSt12_Vector_baseISt4pairIiiESaIS1_EE13_M_deallocateEPS1_m", scope: !50, file: !49, line: 300, type: !295, isLocal: false, isDefinition: false, scopeLine: 300, flags: DIFlagPrototyped, isOptimized: true)
!295 = !DISubroutineType(types: !296)
!296 = !{null, !256, !57, !175}
!297 = !DISubprogram(name: "_M_create_storage", linkageName: "_ZNSt12_Vector_baseISt4pairIiiESaIS1_EE17_M_create_storageEm", scope: !50, file: !49, line: 309, type: !275, isLocal: false, isDefinition: false, scopeLine: 309, flags: DIFlagPrivate | DIFlagPrototyped, isOptimized: true)
!298 = !{!187, !216}
!299 = !DIDerivedType(tag: DW_TAG_typedef, name: "other", scope: !300, file: !59, line: 117, baseType: !301)
!300 = distinct !DICompositeType(tag: DW_TAG_structure_type, name: "rebind<std::pair<int, int> >", scope: !60, file: !59, line: 116, size: 8, flags: DIFlagTypePassByValue, elements: !114, templateParams: !186, identifier: "_ZTSN9__gnu_cxx14__alloc_traitsISaISt4pairIiiEES2_E6rebindIS2_EE")
!301 = !DIDerivedType(tag: DW_TAG_typedef, name: "rebind_alloc<std::pair<int, int> >", scope: !63, file: !64, line: 422, baseType: !140)
!302 = !DIDerivedType(tag: DW_TAG_typedef, name: "_Link_type", scope: !303, file: !12, line: 465, baseType: !550)
!303 = distinct !DICompositeType(tag: DW_TAG_class_type, name: "_Rb_tree<std::__cxx11::basic_string<char>, std::pair<const std::__cxx11::basic_string<char>, std::__cxx11::basic_string<char> >, std::_Select1st<std::pair<const std::__cxx11::basic_string<char>, std::__cxx11::basic_string<char> > >, std::less<std::__cxx11::basic_string<char> >, std::allocator<std::pair<const std::__cxx11::basic_string<char>, std::__cxx11::basic_string<char> > > >", scope: !13, file: !12, line: 444, size: 384, flags: DIFlagTypePassByReference, elements: !304, templateParams: !983, identifier: "_ZTSSt8_Rb_treeINSt7__cxx1112basic_stringIcSt11char_traitsIcESaIcEEESt4pairIKS5_S5_ESt10_Select1stIS8_ESt4lessIS5_ESaIS8_EE")
!304 = !{!305, !659, !664, !671, !675, !678, !681, !682, !683, !688, !692, !693, !694, !695, !696, !697, !701, !704, !705, !712, !715, !718, !721, !722, !723, !726, !729, !733, !737, !738, !739, !800, !801, !806, !807, !812, !815, !818, !822, !823, !826, !829, !830, !831, !834, !839, !842, !845, !848, !852, !855, !858, !859, !863, !866, !869, !872, !873, !874, !880, !885, !886, !887, !890, !894, !895, !898, !901, !904, !907, !910, !914, !917, !921, !922, !925, !928, !931, !932, !933, !934, !935, !939, !943, !944, !947, !965, !981, !982}
!305 = !DIDerivedType(tag: DW_TAG_member, name: "_M_impl", scope: !303, file: !12, line: 724, baseType: !306, size: 384, flags: DIFlagProtected)
!306 = distinct !DICompositeType(tag: DW_TAG_structure_type, name: "_Rb_tree_impl<std::less<std::__cxx11::basic_string<char> >, true>", scope: !303, file: !12, line: 692, size: 384, flags: DIFlagTypePassByReference, elements: !307, templateParams: !657, identifier: "_ZTSNSt8_Rb_treeINSt7__cxx1112basic_stringIcSt11char_traitsIcESaIcEEESt4pairIKS5_S5_ESt10_Select1stIS8_ESt4lessIS5_ESaIS8_EE13_Rb_tree_implISC_Lb1EEE")
!307 = !{!308, !582, !622, !640, !644, !649, !653}
!308 = !DIDerivedType(tag: DW_TAG_inheritance, scope: !306, baseType: !309, extraData: i32 0)
!309 = !DIDerivedType(tag: DW_TAG_typedef, name: "_Node_allocator", scope: !303, file: !12, line: 447, baseType: !310)
!310 = !DIDerivedType(tag: DW_TAG_typedef, name: "other", scope: !311, file: !59, line: 117, baseType: !529)
!311 = distinct !DICompositeType(tag: DW_TAG_structure_type, name: "rebind<std::_Rb_tree_node<std::pair<const std::__cxx11::basic_string<char>, std::__cxx11::basic_string<char> > > >", scope: !312, file: !59, line: 116, size: 8, flags: DIFlagTypePassByValue, elements: !114, templateParams: !461, identifier: "_ZTSN9__gnu_cxx14__alloc_traitsISaISt4pairIKNSt7__cxx1112basic_stringIcSt11char_traitsIcESaIcEEES7_EES9_E6rebindISt13_Rb_tree_nodeIS9_EEE")
!312 = distinct !DICompositeType(tag: DW_TAG_structure_type, name: "__alloc_traits<std::allocator<std::pair<const std::__cxx11::basic_string<char>, std::__cxx11::basic_string<char> > >, std::pair<const std::__cxx11::basic_string<char>, std::__cxx11::basic_string<char> > >", scope: !5, file: !59, line: 50, size: 8, flags: DIFlagTypePassByValue, elements: !313, templateParams: !459, identifier: "_ZTSN9__gnu_cxx14__alloc_traitsISaISt4pairIKNSt7__cxx1112basic_stringIcSt11char_traitsIcESaIcEEES7_EES9_EE")
!313 = !{!314, !447, !450, !454, !455, !456, !457, !458}
!314 = !DIDerivedType(tag: DW_TAG_inheritance, scope: !312, baseType: !315, extraData: i32 0)
!315 = distinct !DICompositeType(tag: DW_TAG_structure_type, name: "allocator_traits<std::allocator<std::pair<const std::__cxx11::basic_string<char>, std::__cxx11::basic_string<char> > > >", scope: !13, file: !64, line: 384, size: 8, flags: DIFlagTypePassByValue, elements: !316, templateParams: !445, identifier: "_ZTSSt16allocator_traitsISaISt4pairIKNSt7__cxx1112basic_stringIcSt11char_traitsIcESaIcEEES6_EEE")
!316 = !{!317, !430, !433, !436, !442}
!317 = !DISubprogram(name: "allocate", linkageName: "_ZNSt16allocator_traitsISaISt4pairIKNSt7__cxx1112basic_stringIcSt11char_traitsIcESaIcEEES6_EEE8allocateERS9_m", scope: !315, file: !64, line: 435, type: !318, isLocal: false, isDefinition: false, scopeLine: 435, flags: DIFlagPrototyped | DIFlagStaticMember, isOptimized: true)
!318 = !DISubroutineType(types: !319)
!319 = !{!320, !379, !198}
!320 = !DIDerivedType(tag: DW_TAG_typedef, name: "pointer", scope: !315, file: !64, line: 392, baseType: !321)
!321 = !DIDerivedType(tag: DW_TAG_pointer_type, baseType: !322, size: 64)
!322 = distinct !DICompositeType(tag: DW_TAG_structure_type, name: "pair<const std::__cxx11::basic_string<char>, std::__cxx11::basic_string<char> >", scope: !13, file: !72, line: 208, size: 512, flags: DIFlagTypePassByReference, elements: !323, templateParams: !376, identifier: "_ZTSSt4pairIKNSt7__cxx1112basic_stringIcSt11char_traitsIcESaIcEEES5_E")
!323 = !{!324, !345, !346, !347, !353, !357, !366, !373}
!324 = !DIDerivedType(tag: DW_TAG_inheritance, scope: !322, baseType: !325, flags: DIFlagPrivate, extraData: i32 0)
!325 = distinct !DICompositeType(tag: DW_TAG_class_type, name: "__pair_base<const std::__cxx11::basic_string<char>, std::__cxx11::basic_string<char> >", scope: !13, file: !72, line: 190, size: 8, flags: DIFlagTypePassByValue, elements: !326, templateParams: !341, identifier: "_ZTSSt11__pair_baseIKNSt7__cxx1112basic_stringIcSt11char_traitsIcESaIcEEES5_E")
!326 = !{!327, !331, !332, !337}
!327 = !DISubprogram(name: "__pair_base", scope: !325, file: !72, line: 194, type: !328, isLocal: false, isDefinition: false, scopeLine: 194, flags: DIFlagPrototyped, isOptimized: true)
!328 = !DISubroutineType(types: !329)
!329 = !{null, !330}
!330 = !DIDerivedType(tag: DW_TAG_pointer_type, baseType: !325, size: 64, flags: DIFlagArtificial | DIFlagObjectPointer)
!331 = !DISubprogram(name: "~__pair_base", scope: !325, file: !72, line: 195, type: !328, isLocal: false, isDefinition: false, scopeLine: 195, flags: DIFlagPrototyped, isOptimized: true)
!332 = !DISubprogram(name: "__pair_base", scope: !325, file: !72, line: 196, type: !333, isLocal: false, isDefinition: false, scopeLine: 196, flags: DIFlagPrototyped, isOptimized: true)
!333 = !DISubroutineType(types: !334)
!334 = !{null, !330, !335}
!335 = !DIDerivedType(tag: DW_TAG_reference_type, baseType: !336, size: 64)
!336 = !DIDerivedType(tag: DW_TAG_const_type, baseType: !325)
!337 = !DISubprogram(name: "operator=", linkageName: "_ZNSt11__pair_baseIKNSt7__cxx1112basic_stringIcSt11char_traitsIcESaIcEEES5_EaSERKS7_", scope: !325, file: !72, line: 197, type: !338, isLocal: false, isDefinition: false, scopeLine: 197, flags: DIFlagPrototyped, isOptimized: true)
!338 = !DISubroutineType(types: !339)
!339 = !{!340, !330, !335}
!340 = !DIDerivedType(tag: DW_TAG_reference_type, baseType: !325, size: 64)
!341 = !{!342, !344}
!342 = !DITemplateTypeParameter(name: "_U1", type: !343)
!343 = !DIDerivedType(tag: DW_TAG_const_type, baseType: !31)
!344 = !DITemplateTypeParameter(name: "_U2", type: !31)
!345 = !DIDerivedType(tag: DW_TAG_member, name: "first", scope: !322, file: !72, line: 214, baseType: !343, size: 256)
!346 = !DIDerivedType(tag: DW_TAG_member, name: "second", scope: !322, file: !72, line: 215, baseType: !31, size: 256, offset: 256)
!347 = !DISubprogram(name: "pair", scope: !322, file: !72, line: 303, type: !348, isLocal: false, isDefinition: false, scopeLine: 303, flags: DIFlagPrototyped, isOptimized: true)
!348 = !DISubroutineType(types: !349)
!349 = !{null, !350, !351}
!350 = !DIDerivedType(tag: DW_TAG_pointer_type, baseType: !322, size: 64, flags: DIFlagArtificial | DIFlagObjectPointer)
!351 = !DIDerivedType(tag: DW_TAG_reference_type, baseType: !352, size: 64)
!352 = !DIDerivedType(tag: DW_TAG_const_type, baseType: !322)
!353 = !DISubprogram(name: "pair", scope: !322, file: !72, line: 304, type: !354, isLocal: false, isDefinition: false, scopeLine: 304, flags: DIFlagPrototyped, isOptimized: true)
!354 = !DISubroutineType(types: !355)
!355 = !{null, !350, !356}
!356 = !DIDerivedType(tag: DW_TAG_rvalue_reference_type, baseType: !322, size: 64)
!357 = !DISubprogram(name: "operator=", linkageName: "_ZNSt4pairIKNSt7__cxx1112basic_stringIcSt11char_traitsIcESaIcEEES5_EaSERKSt20__nonesuch_no_braces", scope: !322, file: !72, line: 378, type: !358, isLocal: false, isDefinition: false, scopeLine: 378, flags: DIFlagPrototyped, isOptimized: true)
!358 = !DISubroutineType(types: !359)
!359 = !{!360, !350, !361}
!360 = !DIDerivedType(tag: DW_TAG_reference_type, baseType: !322, size: 64)
!361 = !DIDerivedType(tag: DW_TAG_typedef, name: "type", scope: !362, file: !112, line: 1975, baseType: !120)
!362 = distinct !DICompositeType(tag: DW_TAG_structure_type, name: "conditional<false, const std::pair<const std::__cxx11::basic_string<char>, std::__cxx11::basic_string<char> > &, const std::__nonesuch_no_braces &>", scope: !13, file: !112, line: 1974, size: 8, flags: DIFlagTypePassByValue, elements: !114, templateParams: !363, identifier: "_ZTSSt11conditionalILb0ERKSt4pairIKNSt7__cxx1112basic_stringIcSt11char_traitsIcESaIcEEES6_ERKSt20__nonesuch_no_bracesE")
!363 = !{!364, !365, !119}
!364 = !DITemplateValueParameter(name: "_Cond", type: !117, value: i8 0)
!365 = !DITemplateTypeParameter(name: "_Iftrue", type: !351)
!366 = !DISubprogram(name: "operator=", linkageName: "_ZNSt4pairIKNSt7__cxx1112basic_stringIcSt11char_traitsIcESaIcEEES5_EaSEOSt20__nonesuch_no_braces", scope: !322, file: !72, line: 389, type: !367, isLocal: false, isDefinition: false, scopeLine: 389, flags: DIFlagPrototyped, isOptimized: true)
!367 = !DISubroutineType(types: !368)
!368 = !{!360, !350, !369}
!369 = !DIDerivedType(tag: DW_TAG_typedef, name: "type", scope: !370, file: !112, line: 1975, baseType: !131)
!370 = distinct !DICompositeType(tag: DW_TAG_structure_type, name: "conditional<false, std::pair<const std::__cxx11::basic_string<char>, std::__cxx11::basic_string<char> > &&, std::__nonesuch_no_braces &&>", scope: !13, file: !112, line: 1974, size: 8, flags: DIFlagTypePassByValue, elements: !114, templateParams: !371, identifier: "_ZTSSt11conditionalILb0EOSt4pairIKNSt7__cxx1112basic_stringIcSt11char_traitsIcESaIcEEES6_EOSt20__nonesuch_no_bracesE")
!371 = !{!364, !372, !130}
!372 = !DITemplateTypeParameter(name: "_Iftrue", type: !356)
!373 = !DISubprogram(name: "swap", linkageName: "_ZNSt4pairIKNSt7__cxx1112basic_stringIcSt11char_traitsIcESaIcEEES5_E4swapERS7_", scope: !322, file: !72, line: 424, type: !374, isLocal: false, isDefinition: false, scopeLine: 424, flags: DIFlagPrototyped, isOptimized: true)
!374 = !DISubroutineType(types: !375)
!375 = !{null, !350, !360}
!376 = !{!377, !378}
!377 = !DITemplateTypeParameter(name: "_T1", type: !343)
!378 = !DITemplateTypeParameter(name: "_T2", type: !31)
!379 = !DIDerivedType(tag: DW_TAG_reference_type, baseType: !380, size: 64)
!380 = !DIDerivedType(tag: DW_TAG_typedef, name: "allocator_type", scope: !315, file: !64, line: 387, baseType: !381)
!381 = distinct !DICompositeType(tag: DW_TAG_class_type, name: "allocator<std::pair<const std::__cxx11::basic_string<char>, std::__cxx11::basic_string<char> > >", scope: !13, file: !141, line: 108, size: 8, flags: DIFlagTypePassByReference, elements: !382, templateParams: !418, identifier: "_ZTSSaISt4pairIKNSt7__cxx1112basic_stringIcSt11char_traitsIcESaIcEEES5_EE")
!382 = !{!383, !420, !424, !429}
!383 = !DIDerivedType(tag: DW_TAG_inheritance, scope: !381, baseType: !384, flags: DIFlagPublic, extraData: i32 0)
!384 = !DIDerivedType(tag: DW_TAG_typedef, name: "__allocator_base<std::pair<const std::__cxx11::basic_string<char>, std::__cxx11::basic_string<char> > >", scope: !13, file: !145, line: 48, baseType: !385)
!385 = distinct !DICompositeType(tag: DW_TAG_class_type, name: "new_allocator<std::pair<const std::__cxx11::basic_string<char>, std::__cxx11::basic_string<char> > >", scope: !5, file: !147, line: 58, size: 8, flags: DIFlagTypePassByReference, elements: !386, templateParams: !418, identifier: "_ZTSN9__gnu_cxx13new_allocatorISt4pairIKNSt7__cxx1112basic_stringIcSt11char_traitsIcESaIcEEES7_EEE")
!386 = !{!387, !391, !396, !397, !403, !409, !412, !415}
!387 = !DISubprogram(name: "new_allocator", scope: !385, file: !147, line: 79, type: !388, isLocal: false, isDefinition: false, scopeLine: 79, flags: DIFlagPublic | DIFlagPrototyped, isOptimized: true)
!388 = !DISubroutineType(types: !389)
!389 = !{null, !390}
!390 = !DIDerivedType(tag: DW_TAG_pointer_type, baseType: !385, size: 64, flags: DIFlagArtificial | DIFlagObjectPointer)
!391 = !DISubprogram(name: "new_allocator", scope: !385, file: !147, line: 81, type: !392, isLocal: false, isDefinition: false, scopeLine: 81, flags: DIFlagPublic | DIFlagPrototyped, isOptimized: true)
!392 = !DISubroutineType(types: !393)
!393 = !{null, !390, !394}
!394 = !DIDerivedType(tag: DW_TAG_reference_type, baseType: !395, size: 64)
!395 = !DIDerivedType(tag: DW_TAG_const_type, baseType: !385)
!396 = !DISubprogram(name: "~new_allocator", scope: !385, file: !147, line: 86, type: !388, isLocal: false, isDefinition: false, scopeLine: 86, flags: DIFlagPublic | DIFlagPrototyped, isOptimized: true)
!397 = !DISubprogram(name: "address", linkageName: "_ZNK9__gnu_cxx13new_allocatorISt4pairIKNSt7__cxx1112basic_stringIcSt11char_traitsIcESaIcEEES7_EE7addressERS9_", scope: !385, file: !147, line: 89, type: !398, isLocal: false, isDefinition: false, scopeLine: 89, flags: DIFlagPublic | DIFlagPrototyped, isOptimized: true)
!398 = !DISubroutineType(types: !399)
!399 = !{!400, !401, !402}
!400 = !DIDerivedType(tag: DW_TAG_typedef, name: "pointer", scope: !385, file: !147, line: 63, baseType: !321)
!401 = !DIDerivedType(tag: DW_TAG_pointer_type, baseType: !395, size: 64, flags: DIFlagArtificial | DIFlagObjectPointer)
!402 = !DIDerivedType(tag: DW_TAG_typedef, name: "reference", scope: !385, file: !147, line: 65, baseType: !360)
!403 = !DISubprogram(name: "address", linkageName: "_ZNK9__gnu_cxx13new_allocatorISt4pairIKNSt7__cxx1112basic_stringIcSt11char_traitsIcESaIcEEES7_EE7addressERKS9_", scope: !385, file: !147, line: 93, type: !404, isLocal: false, isDefinition: false, scopeLine: 93, flags: DIFlagPublic | DIFlagPrototyped, isOptimized: true)
!404 = !DISubroutineType(types: !405)
!405 = !{!406, !401, !408}
!406 = !DIDerivedType(tag: DW_TAG_typedef, name: "const_pointer", scope: !385, file: !147, line: 64, baseType: !407)
!407 = !DIDerivedType(tag: DW_TAG_pointer_type, baseType: !352, size: 64)
!408 = !DIDerivedType(tag: DW_TAG_typedef, name: "const_reference", scope: !385, file: !147, line: 66, baseType: !351)
!409 = !DISubprogram(name: "allocate", linkageName: "_ZN9__gnu_cxx13new_allocatorISt4pairIKNSt7__cxx1112basic_stringIcSt11char_traitsIcESaIcEEES7_EE8allocateEmPKv", scope: !385, file: !147, line: 99, type: !410, isLocal: false, isDefinition: false, scopeLine: 99, flags: DIFlagPublic | DIFlagPrototyped, isOptimized: true)
!410 = !DISubroutineType(types: !411)
!411 = !{!400, !390, !174, !178}
!412 = !DISubprogram(name: "deallocate", linkageName: "_ZN9__gnu_cxx13new_allocatorISt4pairIKNSt7__cxx1112basic_stringIcSt11char_traitsIcESaIcEEES7_EE10deallocateEPS9_m", scope: !385, file: !147, line: 116, type: !413, isLocal: false, isDefinition: false, scopeLine: 116, flags: DIFlagPublic | DIFlagPrototyped, isOptimized: true)
!413 = !DISubroutineType(types: !414)
!414 = !{null, !390, !400, !174}
!415 = !DISubprogram(name: "max_size", linkageName: "_ZNK9__gnu_cxx13new_allocatorISt4pairIKNSt7__cxx1112basic_stringIcSt11char_traitsIcESaIcEEES7_EE8max_sizeEv", scope: !385, file: !147, line: 129, type: !416, isLocal: false, isDefinition: false, scopeLine: 129, flags: DIFlagPublic | DIFlagPrototyped, isOptimized: true)
!416 = !DISubroutineType(types: !417)
!417 = !{!174, !401}
!418 = !{!419}
!419 = !DITemplateTypeParameter(name: "_Tp", type: !322)
!420 = !DISubprogram(name: "allocator", scope: !381, file: !141, line: 131, type: !421, isLocal: false, isDefinition: false, scopeLine: 131, flags: DIFlagPublic | DIFlagPrototyped, isOptimized: true)
!421 = !DISubroutineType(types: !422)
!422 = !{null, !423}
!423 = !DIDerivedType(tag: DW_TAG_pointer_type, baseType: !381, size: 64, flags: DIFlagArtificial | DIFlagObjectPointer)
!424 = !DISubprogram(name: "allocator", scope: !381, file: !141, line: 133, type: !425, isLocal: false, isDefinition: false, scopeLine: 133, flags: DIFlagPublic | DIFlagPrototyped, isOptimized: true)
!425 = !DISubroutineType(types: !426)
!426 = !{null, !423, !427}
!427 = !DIDerivedType(tag: DW_TAG_reference_type, baseType: !428, size: 64)
!428 = !DIDerivedType(tag: DW_TAG_const_type, baseType: !381)
!429 = !DISubprogram(name: "~allocator", scope: !381, file: !141, line: 139, type: !421, isLocal: false, isDefinition: false, scopeLine: 139, flags: DIFlagPublic | DIFlagPrototyped, isOptimized: true)
!430 = !DISubprogram(name: "allocate", linkageName: "_ZNSt16allocator_traitsISaISt4pairIKNSt7__cxx1112basic_stringIcSt11char_traitsIcESaIcEEES6_EEE8allocateERS9_mPKv", scope: !315, file: !64, line: 449, type: !431, isLocal: false, isDefinition: false, scopeLine: 449, flags: DIFlagPrototyped | DIFlagStaticMember, isOptimized: true)
!431 = !DISubroutineType(types: !432)
!432 = !{!320, !379, !198, !202}
!433 = !DISubprogram(name: "deallocate", linkageName: "_ZNSt16allocator_traitsISaISt4pairIKNSt7__cxx1112basic_stringIcSt11char_traitsIcESaIcEEES6_EEE10deallocateERS9_PS8_m", scope: !315, file: !64, line: 461, type: !434, isLocal: false, isDefinition: false, scopeLine: 461, flags: DIFlagPrototyped | DIFlagStaticMember, isOptimized: true)
!434 = !DISubroutineType(types: !435)
!435 = !{null, !379, !320, !198}
!436 = !DISubprogram(name: "max_size", linkageName: "_ZNSt16allocator_traitsISaISt4pairIKNSt7__cxx1112basic_stringIcSt11char_traitsIcESaIcEEES6_EEE8max_sizeERKS9_", scope: !315, file: !64, line: 495, type: !437, isLocal: false, isDefinition: false, scopeLine: 495, flags: DIFlagPrototyped | DIFlagStaticMember, isOptimized: true)
!437 = !DISubroutineType(types: !438)
!438 = !{!439, !440}
!439 = !DIDerivedType(tag: DW_TAG_typedef, name: "size_type", scope: !315, file: !64, line: 407, baseType: !175)
!440 = !DIDerivedType(tag: DW_TAG_reference_type, baseType: !441, size: 64)
!441 = !DIDerivedType(tag: DW_TAG_const_type, baseType: !380)
!442 = !DISubprogram(name: "select_on_container_copy_construction", linkageName: "_ZNSt16allocator_traitsISaISt4pairIKNSt7__cxx1112basic_stringIcSt11char_traitsIcESaIcEEES6_EEE37select_on_container_copy_constructionERKS9_", scope: !315, file: !64, line: 504, type: !443, isLocal: false, isDefinition: false, scopeLine: 504, flags: DIFlagPrototyped | DIFlagStaticMember, isOptimized: true)
!443 = !DISubroutineType(types: !444)
!444 = !{!380, !440}
!445 = !{!446}
!446 = !DITemplateTypeParameter(name: "_Alloc", type: !381)
!447 = !DISubprogram(name: "_S_select_on_copy", linkageName: "_ZN9__gnu_cxx14__alloc_traitsISaISt4pairIKNSt7__cxx1112basic_stringIcSt11char_traitsIcESaIcEEES7_EES9_E17_S_select_on_copyERKSA_", scope: !312, file: !59, line: 94, type: !448, isLocal: false, isDefinition: false, scopeLine: 94, flags: DIFlagPrototyped | DIFlagStaticMember, isOptimized: true)
!448 = !DISubroutineType(types: !449)
!449 = !{!381, !427}
!450 = !DISubprogram(name: "_S_on_swap", linkageName: "_ZN9__gnu_cxx14__alloc_traitsISaISt4pairIKNSt7__cxx1112basic_stringIcSt11char_traitsIcESaIcEEES7_EES9_E10_S_on_swapERSA_SC_", scope: !312, file: !59, line: 97, type: !451, isLocal: false, isDefinition: false, scopeLine: 97, flags: DIFlagPrototyped | DIFlagStaticMember, isOptimized: true)
!451 = !DISubroutineType(types: !452)
!452 = !{null, !453, !453}
!453 = !DIDerivedType(tag: DW_TAG_reference_type, baseType: !381, size: 64)
!454 = !DISubprogram(name: "_S_propagate_on_copy_assign", linkageName: "_ZN9__gnu_cxx14__alloc_traitsISaISt4pairIKNSt7__cxx1112basic_stringIcSt11char_traitsIcESaIcEEES7_EES9_E27_S_propagate_on_copy_assignEv", scope: !312, file: !59, line: 100, type: !225, isLocal: false, isDefinition: false, scopeLine: 100, flags: DIFlagPrototyped | DIFlagStaticMember, isOptimized: true)
!455 = !DISubprogram(name: "_S_propagate_on_move_assign", linkageName: "_ZN9__gnu_cxx14__alloc_traitsISaISt4pairIKNSt7__cxx1112basic_stringIcSt11char_traitsIcESaIcEEES7_EES9_E27_S_propagate_on_move_assignEv", scope: !312, file: !59, line: 103, type: !225, isLocal: false, isDefinition: false, scopeLine: 103, flags: DIFlagPrototyped | DIFlagStaticMember, isOptimized: true)
!456 = !DISubprogram(name: "_S_propagate_on_swap", linkageName: "_ZN9__gnu_cxx14__alloc_traitsISaISt4pairIKNSt7__cxx1112basic_stringIcSt11char_traitsIcESaIcEEES7_EES9_E20_S_propagate_on_swapEv", scope: !312, file: !59, line: 106, type: !225, isLocal: false, isDefinition: false, scopeLine: 106, flags: DIFlagPrototyped | DIFlagStaticMember, isOptimized: true)
!457 = !DISubprogram(name: "_S_always_equal", linkageName: "_ZN9__gnu_cxx14__alloc_traitsISaISt4pairIKNSt7__cxx1112basic_stringIcSt11char_traitsIcESaIcEEES7_EES9_E15_S_always_equalEv", scope: !312, file: !59, line: 109, type: !225, isLocal: false, isDefinition: false, scopeLine: 109, flags: DIFlagPrototyped | DIFlagStaticMember, isOptimized: true)
!458 = !DISubprogram(name: "_S_nothrow_move", linkageName: "_ZN9__gnu_cxx14__alloc_traitsISaISt4pairIKNSt7__cxx1112basic_stringIcSt11char_traitsIcESaIcEEES7_EES9_E15_S_nothrow_moveEv", scope: !312, file: !59, line: 112, type: !225, isLocal: false, isDefinition: false, scopeLine: 112, flags: DIFlagPrototyped | DIFlagStaticMember, isOptimized: true)
!459 = !{!446, !460}
!460 = !DITemplateTypeParameter(type: !322)
!461 = !{!462}
!462 = !DITemplateTypeParameter(name: "_Tp", type: !463)
!463 = distinct !DICompositeType(tag: DW_TAG_structure_type, name: "_Rb_tree_node<std::pair<const std::__cxx11::basic_string<char>, std::__cxx11::basic_string<char> > >", scope: !13, file: !12, line: 216, size: 768, flags: DIFlagTypePassByValue, elements: !464, templateParams: !527, identifier: "_ZTSSt13_Rb_tree_nodeISt4pairIKNSt7__cxx1112basic_stringIcSt11char_traitsIcESaIcEEES6_EE")
!464 = !{!465, !485, !518, !522}
!465 = !DIDerivedType(tag: DW_TAG_inheritance, scope: !463, baseType: !466, extraData: i32 0)
!466 = distinct !DICompositeType(tag: DW_TAG_structure_type, name: "_Rb_tree_node_base", scope: !13, file: !12, line: 101, size: 256, flags: DIFlagTypePassByValue, elements: !467, identifier: "_ZTSSt18_Rb_tree_node_base")
!467 = !{!468, !469, !472, !473, !474, !477, !483, !484}
!468 = !DIDerivedType(tag: DW_TAG_member, name: "_M_color", scope: !466, file: !12, line: 106, baseType: !11, size: 32)
!469 = !DIDerivedType(tag: DW_TAG_member, name: "_M_parent", scope: !466, file: !12, line: 107, baseType: !470, size: 64, offset: 64)
!470 = !DIDerivedType(tag: DW_TAG_typedef, name: "_Base_ptr", scope: !466, file: !12, line: 103, baseType: !471)
!471 = !DIDerivedType(tag: DW_TAG_pointer_type, baseType: !466, size: 64)
!472 = !DIDerivedType(tag: DW_TAG_member, name: "_M_left", scope: !466, file: !12, line: 108, baseType: !470, size: 64, offset: 128)
!473 = !DIDerivedType(tag: DW_TAG_member, name: "_M_right", scope: !466, file: !12, line: 109, baseType: !470, size: 64, offset: 192)
!474 = !DISubprogram(name: "_S_minimum", linkageName: "_ZNSt18_Rb_tree_node_base10_S_minimumEPS_", scope: !466, file: !12, line: 112, type: !475, isLocal: false, isDefinition: false, scopeLine: 112, flags: DIFlagPrototyped | DIFlagStaticMember, isOptimized: true)
!475 = !DISubroutineType(types: !476)
!476 = !{!470, !470}
!477 = !DISubprogram(name: "_S_minimum", linkageName: "_ZNSt18_Rb_tree_node_base10_S_minimumEPKS_", scope: !466, file: !12, line: 119, type: !478, isLocal: false, isDefinition: false, scopeLine: 119, flags: DIFlagPrototyped | DIFlagStaticMember, isOptimized: true)
!478 = !DISubroutineType(types: !479)
!479 = !{!480, !480}
!480 = !DIDerivedType(tag: DW_TAG_typedef, name: "_Const_Base_ptr", scope: !466, file: !12, line: 104, baseType: !481)
!481 = !DIDerivedType(tag: DW_TAG_pointer_type, baseType: !482, size: 64)
!482 = !DIDerivedType(tag: DW_TAG_const_type, baseType: !466)
!483 = !DISubprogram(name: "_S_maximum", linkageName: "_ZNSt18_Rb_tree_node_base10_S_maximumEPS_", scope: !466, file: !12, line: 126, type: !475, isLocal: false, isDefinition: false, scopeLine: 126, flags: DIFlagPrototyped | DIFlagStaticMember, isOptimized: true)
!484 = !DISubprogram(name: "_S_maximum", linkageName: "_ZNSt18_Rb_tree_node_base10_S_maximumEPKS_", scope: !466, file: !12, line: 133, type: !478, isLocal: false, isDefinition: false, scopeLine: 133, flags: DIFlagPrototyped | DIFlagStaticMember, isOptimized: true)
!485 = !DIDerivedType(tag: DW_TAG_member, name: "_M_storage", scope: !463, file: !12, line: 231, baseType: !486, size: 512, offset: 256)
!486 = distinct !DICompositeType(tag: DW_TAG_structure_type, name: "__aligned_membuf<std::pair<const std::__cxx11::basic_string<char>, std::__cxx11::basic_string<char> > >", scope: !5, file: !487, line: 47, size: 512, flags: DIFlagTypePassByValue, elements: !488, templateParams: !418, identifier: "_ZTSN9__gnu_cxx16__aligned_membufISt4pairIKNSt7__cxx1112basic_stringIcSt11char_traitsIcESaIcEEES7_EEE")
!487 = !DIFile(filename: "/usr/bin/../lib64/gcc/x86_64-pc-linux-gnu/8.2.1/../../../../include/c++/8.2.1/ext/aligned_buffer.h", directory: "/home/firefox/firefox/mozilla-unified/obj-opt-x86_64-pc-linux-gnu/widget")
!488 = !{!489, !494, !498, !503, !507, !512, !515}
!489 = !DIDerivedType(tag: DW_TAG_member, name: "_M_storage", scope: !486, file: !487, line: 54, baseType: !490, size: 512, align: 64)
!490 = !DICompositeType(tag: DW_TAG_array_type, baseType: !491, size: 512, elements: !492)
!491 = !DIBasicType(name: "unsigned char", size: 8, encoding: DW_ATE_unsigned_char)
!492 = !{!493}
!493 = !DISubrange(count: 64)
!494 = !DISubprogram(name: "__aligned_membuf", scope: !486, file: !487, line: 56, type: !495, isLocal: false, isDefinition: false, scopeLine: 56, flags: DIFlagPrototyped, isOptimized: true)
!495 = !DISubroutineType(types: !496)
!496 = !{null, !497}
!497 = !DIDerivedType(tag: DW_TAG_pointer_type, baseType: !486, size: 64, flags: DIFlagArtificial | DIFlagObjectPointer)
!498 = !DISubprogram(name: "__aligned_membuf", scope: !486, file: !487, line: 59, type: !499, isLocal: false, isDefinition: false, scopeLine: 59, flags: DIFlagPrototyped, isOptimized: true)
!499 = !DISubroutineType(types: !500)
!500 = !{null, !497, !501}
!501 = !DIDerivedType(tag: DW_TAG_typedef, name: "nullptr_t", scope: !13, file: !176, line: 242, baseType: !502)
!502 = !DIBasicType(tag: DW_TAG_unspecified_type, name: "decltype(nullptr)")
!503 = !DISubprogram(name: "_M_addr", linkageName: "_ZN9__gnu_cxx16__aligned_membufISt4pairIKNSt7__cxx1112basic_stringIcSt11char_traitsIcESaIcEEES7_EE7_M_addrEv", scope: !486, file: !487, line: 62, type: !504, isLocal: false, isDefinition: false, scopeLine: 62, flags: DIFlagPrototyped, isOptimized: true)
!504 = !DISubroutineType(types: !505)
!505 = !{!506, !497}
!506 = !DIDerivedType(tag: DW_TAG_pointer_type, baseType: null, size: 64)
!507 = !DISubprogram(name: "_M_addr", linkageName: "_ZNK9__gnu_cxx16__aligned_membufISt4pairIKNSt7__cxx1112basic_stringIcSt11char_traitsIcESaIcEEES7_EE7_M_addrEv", scope: !486, file: !487, line: 66, type: !508, isLocal: false, isDefinition: false, scopeLine: 66, flags: DIFlagPrototyped, isOptimized: true)
!508 = !DISubroutineType(types: !509)
!509 = !{!178, !510}
!510 = !DIDerivedType(tag: DW_TAG_pointer_type, baseType: !511, size: 64, flags: DIFlagArtificial | DIFlagObjectPointer)
!511 = !DIDerivedType(tag: DW_TAG_const_type, baseType: !486)
!512 = !DISubprogram(name: "_M_ptr", linkageName: "_ZN9__gnu_cxx16__aligned_membufISt4pairIKNSt7__cxx1112basic_stringIcSt11char_traitsIcESaIcEEES7_EE6_M_ptrEv", scope: !486, file: !487, line: 70, type: !513, isLocal: false, isDefinition: false, scopeLine: 70, flags: DIFlagPrototyped, isOptimized: true)
!513 = !DISubroutineType(types: !514)
!514 = !{!321, !497}
!515 = !DISubprogram(name: "_M_ptr", linkageName: "_ZNK9__gnu_cxx16__aligned_membufISt4pairIKNSt7__cxx1112basic_stringIcSt11char_traitsIcESaIcEEES7_EE6_M_ptrEv", scope: !486, file: !487, line: 74, type: !516, isLocal: false, isDefinition: false, scopeLine: 74, flags: DIFlagPrototyped, isOptimized: true)
!516 = !DISubroutineType(types: !517)
!517 = !{!407, !510}
!518 = !DISubprogram(name: "_M_valptr", linkageName: "_ZNSt13_Rb_tree_nodeISt4pairIKNSt7__cxx1112basic_stringIcSt11char_traitsIcESaIcEEES6_EE9_M_valptrEv", scope: !463, file: !12, line: 234, type: !519, isLocal: false, isDefinition: false, scopeLine: 234, flags: DIFlagPrototyped, isOptimized: true)
!519 = !DISubroutineType(types: !520)
!520 = !{!321, !521}
!521 = !DIDerivedType(tag: DW_TAG_pointer_type, baseType: !463, size: 64, flags: DIFlagArtificial | DIFlagObjectPointer)
!522 = !DISubprogram(name: "_M_valptr", linkageName: "_ZNKSt13_Rb_tree_nodeISt4pairIKNSt7__cxx1112basic_stringIcSt11char_traitsIcESaIcEEES6_EE9_M_valptrEv", scope: !463, file: !12, line: 238, type: !523, isLocal: false, isDefinition: false, scopeLine: 238, flags: DIFlagPrototyped, isOptimized: true)
!523 = !DISubroutineType(types: !524)
!524 = !{!407, !525}
!525 = !DIDerivedType(tag: DW_TAG_pointer_type, baseType: !526, size: 64, flags: DIFlagArtificial | DIFlagObjectPointer)
!526 = !DIDerivedType(tag: DW_TAG_const_type, baseType: !463)
!527 = !{!528}
!528 = !DITemplateTypeParameter(name: "_Val", type: !322)
!529 = !DIDerivedType(tag: DW_TAG_typedef, name: "rebind_alloc<std::_Rb_tree_node<std::pair<const std::__cxx11::basic_string<char>, std::__cxx11::basic_string<char> > > >", scope: !315, file: !64, line: 422, baseType: !530)
!530 = distinct !DICompositeType(tag: DW_TAG_class_type, name: "allocator<std::_Rb_tree_node<std::pair<const std::__cxx11::basic_string<char>, std::__cxx11::basic_string<char> > > >", scope: !13, file: !141, line: 108, size: 8, flags: DIFlagTypePassByReference, elements: !531, templateParams: !580, identifier: "_ZTSSaISt13_Rb_tree_nodeISt4pairIKNSt7__cxx1112basic_stringIcSt11char_traitsIcESaIcEEES6_EEE")
!531 = !{!532, !570, !574, !579}
!532 = !DIDerivedType(tag: DW_TAG_inheritance, scope: !530, baseType: !533, flags: DIFlagPublic, extraData: i32 0)
!533 = !DIDerivedType(tag: DW_TAG_typedef, name: "__allocator_base<std::_Rb_tree_node<std::pair<const std::__cxx11::basic_string<char>, std::__cxx11::basic_string<char> > > >", scope: !13, file: !145, line: 48, baseType: !534)
!534 = distinct !DICompositeType(tag: DW_TAG_class_type, name: "new_allocator<std::_Rb_tree_node<std::pair<const std::__cxx11::basic_string<char>, std::__cxx11::basic_string<char> > > >", scope: !5, file: !147, line: 58, size: 8, flags: DIFlagTypePassByReference, elements: !535, templateParams: !461, identifier: "_ZTSN9__gnu_cxx13new_allocatorISt13_Rb_tree_nodeISt4pairIKNSt7__cxx1112basic_stringIcSt11char_traitsIcESaIcEEES8_EEEE")
!535 = !{!536, !540, !545, !546, !554, !561, !564, !567}
!536 = !DISubprogram(name: "new_allocator", scope: !534, file: !147, line: 79, type: !537, isLocal: false, isDefinition: false, scopeLine: 79, flags: DIFlagPublic | DIFlagPrototyped, isOptimized: true)
!537 = !DISubroutineType(types: !538)
!538 = !{null, !539}
!539 = !DIDerivedType(tag: DW_TAG_pointer_type, baseType: !534, size: 64, flags: DIFlagArtificial | DIFlagObjectPointer)
!540 = !DISubprogram(name: "new_allocator", scope: !534, file: !147, line: 81, type: !541, isLocal: false, isDefinition: false, scopeLine: 81, flags: DIFlagPublic | DIFlagPrototyped, isOptimized: true)
!541 = !DISubroutineType(types: !542)
!542 = !{null, !539, !543}
!543 = !DIDerivedType(tag: DW_TAG_reference_type, baseType: !544, size: 64)
!544 = !DIDerivedType(tag: DW_TAG_const_type, baseType: !534)
!545 = !DISubprogram(name: "~new_allocator", scope: !534, file: !147, line: 86, type: !537, isLocal: false, isDefinition: false, scopeLine: 86, flags: DIFlagPublic | DIFlagPrototyped, isOptimized: true)
!546 = !DISubprogram(name: "address", linkageName: "_ZNK9__gnu_cxx13new_allocatorISt13_Rb_tree_nodeISt4pairIKNSt7__cxx1112basic_stringIcSt11char_traitsIcESaIcEEES8_EEE7addressERSB_", scope: !534, file: !147, line: 89, type: !547, isLocal: false, isDefinition: false, scopeLine: 89, flags: DIFlagPublic | DIFlagPrototyped, isOptimized: true)
!547 = !DISubroutineType(types: !548)
!548 = !{!549, !551, !552}
!549 = !DIDerivedType(tag: DW_TAG_typedef, name: "pointer", scope: !534, file: !147, line: 63, baseType: !550)
!550 = !DIDerivedType(tag: DW_TAG_pointer_type, baseType: !463, size: 64)
!551 = !DIDerivedType(tag: DW_TAG_pointer_type, baseType: !544, size: 64, flags: DIFlagArtificial | DIFlagObjectPointer)
!552 = !DIDerivedType(tag: DW_TAG_typedef, name: "reference", scope: !534, file: !147, line: 65, baseType: !553)
!553 = !DIDerivedType(tag: DW_TAG_reference_type, baseType: !463, size: 64)
!554 = !DISubprogram(name: "address", linkageName: "_ZNK9__gnu_cxx13new_allocatorISt13_Rb_tree_nodeISt4pairIKNSt7__cxx1112basic_stringIcSt11char_traitsIcESaIcEEES8_EEE7addressERKSB_", scope: !534, file: !147, line: 93, type: !555, isLocal: false, isDefinition: false, scopeLine: 93, flags: DIFlagPublic | DIFlagPrototyped, isOptimized: true)
!555 = !DISubroutineType(types: !556)
!556 = !{!557, !551, !559}
!557 = !DIDerivedType(tag: DW_TAG_typedef, name: "const_pointer", scope: !534, file: !147, line: 64, baseType: !558)
!558 = !DIDerivedType(tag: DW_TAG_pointer_type, baseType: !526, size: 64)
!559 = !DIDerivedType(tag: DW_TAG_typedef, name: "const_reference", scope: !534, file: !147, line: 66, baseType: !560)
!560 = !DIDerivedType(tag: DW_TAG_reference_type, baseType: !526, size: 64)
!561 = !DISubprogram(name: "allocate", linkageName: "_ZN9__gnu_cxx13new_allocatorISt13_Rb_tree_nodeISt4pairIKNSt7__cxx1112basic_stringIcSt11char_traitsIcESaIcEEES8_EEE8allocateEmPKv", scope: !534, file: !147, line: 99, type: !562, isLocal: false, isDefinition: false, scopeLine: 99, flags: DIFlagPublic | DIFlagPrototyped, isOptimized: true)
!562 = !DISubroutineType(types: !563)
!563 = !{!549, !539, !174, !178}
!564 = !DISubprogram(name: "deallocate", linkageName: "_ZN9__gnu_cxx13new_allocatorISt13_Rb_tree_nodeISt4pairIKNSt7__cxx1112basic_stringIcSt11char_traitsIcESaIcEEES8_EEE10deallocateEPSB_m", scope: !534, file: !147, line: 116, type: !565, isLocal: false, isDefinition: false, scopeLine: 116, flags: DIFlagPublic | DIFlagPrototyped, isOptimized: true)
!565 = !DISubroutineType(types: !566)
!566 = !{null, !539, !549, !174}
!567 = !DISubprogram(name: "max_size", linkageName: "_ZNK9__gnu_cxx13new_allocatorISt13_Rb_tree_nodeISt4pairIKNSt7__cxx1112basic_stringIcSt11char_traitsIcESaIcEEES8_EEE8max_sizeEv", scope: !534, file: !147, line: 129, type: !568, isLocal: false, isDefinition: false, scopeLine: 129, flags: DIFlagPublic | DIFlagPrototyped, isOptimized: true)
!568 = !DISubroutineType(types: !569)
!569 = !{!174, !551}
!570 = !DISubprogram(name: "allocator", scope: !530, file: !141, line: 131, type: !571, isLocal: false, isDefinition: false, scopeLine: 131, flags: DIFlagPublic | DIFlagPrototyped, isOptimized: true)
!571 = !DISubroutineType(types: !572)
!572 = !{null, !573}
!573 = !DIDerivedType(tag: DW_TAG_pointer_type, baseType: !530, size: 64, flags: DIFlagArtificial | DIFlagObjectPointer)
!574 = !DISubprogram(name: "allocator", scope: !530, file: !141, line: 133, type: !575, isLocal: false, isDefinition: false, scopeLine: 133, flags: DIFlagPublic | DIFlagPrototyped, isOptimized: true)
!575 = !DISubroutineType(types: !576)
!576 = !{null, !573, !577}
!577 = !DIDerivedType(tag: DW_TAG_reference_type, baseType: !578, size: 64)
!578 = !DIDerivedType(tag: DW_TAG_const_type, baseType: !530)
!579 = !DISubprogram(name: "~allocator", scope: !530, file: !141, line: 139, type: !571, isLocal: false, isDefinition: false, scopeLine: 139, flags: DIFlagPublic | DIFlagPrototyped, isOptimized: true)
!580 = !{!581}
!581 = !DITemplateTypeParameter(type: !463)
!582 = !DIDerivedType(tag: DW_TAG_inheritance, scope: !306, baseType: !583, extraData: i32 0)
!583 = distinct !DICompositeType(tag: DW_TAG_structure_type, name: "_Rb_tree_key_compare<std::less<std::__cxx11::basic_string<char> > >", scope: !13, file: !12, line: 142, size: 8, flags: DIFlagTypePassByReference, elements: !584, templateParams: !620, identifier: "_ZTSSt20_Rb_tree_key_compareISt4lessINSt7__cxx1112basic_stringIcSt11char_traitsIcESaIcEEEEE")
!584 = !{!585, !603, !607, !611, !616}
!585 = !DIDerivedType(tag: DW_TAG_member, name: "_M_key_compare", scope: !583, file: !12, line: 144, baseType: !586, size: 8)
!586 = distinct !DICompositeType(tag: DW_TAG_structure_type, name: "less<std::__cxx11::basic_string<char> >", scope: !13, file: !587, line: 381, size: 8, flags: DIFlagTypePassByValue, elements: !588, templateParams: !601, identifier: "_ZTSSt4lessINSt7__cxx1112basic_stringIcSt11char_traitsIcESaIcEEEE")
!587 = !DIFile(filename: "/usr/bin/../lib64/gcc/x86_64-pc-linux-gnu/8.2.1/../../../../include/c++/8.2.1/bits/stl_function.h", directory: "/home/firefox/firefox/mozilla-unified/obj-opt-x86_64-pc-linux-gnu/widget")
!588 = !{!589, !595}
!589 = !DIDerivedType(tag: DW_TAG_inheritance, scope: !586, baseType: !590, extraData: i32 0)
!590 = distinct !DICompositeType(tag: DW_TAG_structure_type, name: "binary_function<std::__cxx11::basic_string<char>, std::__cxx11::basic_string<char>, bool>", scope: !13, file: !587, line: 118, size: 8, flags: DIFlagTypePassByValue, elements: !114, templateParams: !591, identifier: "_ZTSSt15binary_functionINSt7__cxx1112basic_stringIcSt11char_traitsIcESaIcEEES5_bE")
!591 = !{!592, !593, !594}
!592 = !DITemplateTypeParameter(name: "_Arg1", type: !31)
!593 = !DITemplateTypeParameter(name: "_Arg2", type: !31)
!594 = !DITemplateTypeParameter(name: "_Result", type: !117)
!595 = !DISubprogram(name: "operator()", linkageName: "_ZNKSt4lessINSt7__cxx1112basic_stringIcSt11char_traitsIcESaIcEEEEclERKS5_S8_", scope: !586, file: !587, line: 385, type: !596, isLocal: false, isDefinition: false, scopeLine: 385, flags: DIFlagPrototyped, isOptimized: true)
!596 = !DISubroutineType(types: !597)
!597 = !{!117, !598, !600, !600}
!598 = !DIDerivedType(tag: DW_TAG_pointer_type, baseType: !599, size: 64, flags: DIFlagArtificial | DIFlagObjectPointer)
!599 = !DIDerivedType(tag: DW_TAG_const_type, baseType: !586)
!600 = !DIDerivedType(tag: DW_TAG_reference_type, baseType: !343, size: 64)
!601 = !{!602}
!602 = !DITemplateTypeParameter(name: "_Tp", type: !31)
!603 = !DISubprogram(name: "_Rb_tree_key_compare", scope: !583, file: !12, line: 146, type: !604, isLocal: false, isDefinition: false, scopeLine: 146, flags: DIFlagPrototyped, isOptimized: true)
!604 = !DISubroutineType(types: !605)
!605 = !{null, !606}
!606 = !DIDerivedType(tag: DW_TAG_pointer_type, baseType: !583, size: 64, flags: DIFlagArtificial | DIFlagObjectPointer)
!607 = !DISubprogram(name: "_Rb_tree_key_compare", scope: !583, file: !12, line: 152, type: !608, isLocal: false, isDefinition: false, scopeLine: 152, flags: DIFlagPrototyped, isOptimized: true)
!608 = !DISubroutineType(types: !609)
!609 = !{null, !606, !610}
!610 = !DIDerivedType(tag: DW_TAG_reference_type, baseType: !599, size: 64)
!611 = !DISubprogram(name: "_Rb_tree_key_compare", scope: !583, file: !12, line: 158, type: !612, isLocal: false, isDefinition: false, scopeLine: 158, flags: DIFlagPrototyped, isOptimized: true)
!612 = !DISubroutineType(types: !613)
!613 = !{null, !606, !614}
!614 = !DIDerivedType(tag: DW_TAG_reference_type, baseType: !615, size: 64)
!615 = !DIDerivedType(tag: DW_TAG_const_type, baseType: !583)
!616 = !DISubprogram(name: "_Rb_tree_key_compare", scope: !583, file: !12, line: 160, type: !617, isLocal: false, isDefinition: false, scopeLine: 160, flags: DIFlagPrototyped, isOptimized: true)
!617 = !DISubroutineType(types: !618)
!618 = !{null, !606, !619}
!619 = !DIDerivedType(tag: DW_TAG_rvalue_reference_type, baseType: !583, size: 64)
!620 = !{!621}
!621 = !DITemplateTypeParameter(name: "_Key_compare", type: !586)
!622 = !DIDerivedType(tag: DW_TAG_inheritance, scope: !306, baseType: !623, offset: 64, extraData: i32 0)
!623 = distinct !DICompositeType(tag: DW_TAG_structure_type, name: "_Rb_tree_header", scope: !13, file: !12, line: 168, size: 320, flags: DIFlagTypePassByReference, elements: !624, identifier: "_ZTSSt15_Rb_tree_header")
!624 = !{!625, !626, !627, !631, !635, !639}
!625 = !DIDerivedType(tag: DW_TAG_member, name: "_M_header", scope: !623, file: !12, line: 170, baseType: !466, size: 256)
!626 = !DIDerivedType(tag: DW_TAG_member, name: "_M_node_count", scope: !623, file: !12, line: 171, baseType: !175, size: 64, offset: 256)
!627 = !DISubprogram(name: "_Rb_tree_header", scope: !623, file: !12, line: 173, type: !628, isLocal: false, isDefinition: false, scopeLine: 173, flags: DIFlagPrototyped, isOptimized: true)
!628 = !DISubroutineType(types: !629)
!629 = !{null, !630}
!630 = !DIDerivedType(tag: DW_TAG_pointer_type, baseType: !623, size: 64, flags: DIFlagArtificial | DIFlagObjectPointer)
!631 = !DISubprogram(name: "_Rb_tree_header", scope: !623, file: !12, line: 180, type: !632, isLocal: false, isDefinition: false, scopeLine: 180, flags: DIFlagPrototyped, isOptimized: true)
!632 = !DISubroutineType(types: !633)
!633 = !{null, !630, !634}
!634 = !DIDerivedType(tag: DW_TAG_rvalue_reference_type, baseType: !623, size: 64)
!635 = !DISubprogram(name: "_M_move_data", linkageName: "_ZNSt15_Rb_tree_header12_M_move_dataERS_", scope: !623, file: !12, line: 193, type: !636, isLocal: false, isDefinition: false, scopeLine: 193, flags: DIFlagPrototyped, isOptimized: true)
!636 = !DISubroutineType(types: !637)
!637 = !{null, !630, !638}
!638 = !DIDerivedType(tag: DW_TAG_reference_type, baseType: !623, size: 64)
!639 = !DISubprogram(name: "_M_reset", linkageName: "_ZNSt15_Rb_tree_header8_M_resetEv", scope: !623, file: !12, line: 206, type: !628, isLocal: false, isDefinition: false, scopeLine: 206, flags: DIFlagPrototyped, isOptimized: true)
!640 = !DISubprogram(name: "_Rb_tree_impl", scope: !306, file: !12, line: 699, type: !641, isLocal: false, isDefinition: false, scopeLine: 699, flags: DIFlagPrototyped, isOptimized: true)
!641 = !DISubroutineType(types: !642)
!642 = !{null, !643}
!643 = !DIDerivedType(tag: DW_TAG_pointer_type, baseType: !306, size: 64, flags: DIFlagArtificial | DIFlagObjectPointer)
!644 = !DISubprogram(name: "_Rb_tree_impl", scope: !306, file: !12, line: 706, type: !645, isLocal: false, isDefinition: false, scopeLine: 706, flags: DIFlagPrototyped, isOptimized: true)
!645 = !DISubroutineType(types: !646)
!646 = !{null, !643, !647}
!647 = !DIDerivedType(tag: DW_TAG_reference_type, baseType: !648, size: 64)
!648 = !DIDerivedType(tag: DW_TAG_const_type, baseType: !306)
!649 = !DISubprogram(name: "_Rb_tree_impl", scope: !306, file: !12, line: 716, type: !650, isLocal: false, isDefinition: false, scopeLine: 716, flags: DIFlagPrototyped, isOptimized: true)
!650 = !DISubroutineType(types: !651)
!651 = !{null, !643, !652}
!652 = !DIDerivedType(tag: DW_TAG_rvalue_reference_type, baseType: !306, size: 64)
!653 = !DISubprogram(name: "_Rb_tree_impl", scope: !306, file: !12, line: 718, type: !654, isLocal: false, isDefinition: false, scopeLine: 718, flags: DIFlagPrototyped, isOptimized: true)
!654 = !DISubroutineType(types: !655)
!655 = !{null, !643, !610, !656}
!656 = !DIDerivedType(tag: DW_TAG_rvalue_reference_type, baseType: !309, size: 64)
!657 = !{!621, !658}
!658 = !DITemplateValueParameter(type: !117, value: i8 1)
!659 = !DISubprogram(name: "_M_get_Node_allocator", linkageName: "_ZNSt8_Rb_treeINSt7__cxx1112basic_stringIcSt11char_traitsIcESaIcEEESt4pairIKS5_S5_ESt10_Select1stIS8_ESt4lessIS5_ESaIS8_EE21_M_get_Node_allocatorEv", scope: !303, file: !12, line: 585, type: !660, isLocal: false, isDefinition: false, scopeLine: 585, flags: DIFlagPublic | DIFlagPrototyped, isOptimized: true)
!660 = !DISubroutineType(types: !661)
!661 = !{!662, !663}
!662 = !DIDerivedType(tag: DW_TAG_reference_type, baseType: !309, size: 64)
!663 = !DIDerivedType(tag: DW_TAG_pointer_type, baseType: !303, size: 64, flags: DIFlagArtificial | DIFlagObjectPointer)
!664 = !DISubprogram(name: "_M_get_Node_allocator", linkageName: "_ZNKSt8_Rb_treeINSt7__cxx1112basic_stringIcSt11char_traitsIcESaIcEEESt4pairIKS5_S5_ESt10_Select1stIS8_ESt4lessIS5_ESaIS8_EE21_M_get_Node_allocatorEv", scope: !303, file: !12, line: 589, type: !665, isLocal: false, isDefinition: false, scopeLine: 589, flags: DIFlagPublic | DIFlagPrototyped, isOptimized: true)
!665 = !DISubroutineType(types: !666)
!666 = !{!667, !669}
!667 = !DIDerivedType(tag: DW_TAG_reference_type, baseType: !668, size: 64)
!668 = !DIDerivedType(tag: DW_TAG_const_type, baseType: !309)
!669 = !DIDerivedType(tag: DW_TAG_pointer_type, baseType: !670, size: 64, flags: DIFlagArtificial | DIFlagObjectPointer)
!670 = !DIDerivedType(tag: DW_TAG_const_type, baseType: !303)
!671 = !DISubprogram(name: "get_allocator", linkageName: "_ZNKSt8_Rb_treeINSt7__cxx1112basic_stringIcSt11char_traitsIcESaIcEEESt4pairIKS5_S5_ESt10_Select1stIS8_ESt4lessIS5_ESaIS8_EE13get_allocatorEv", scope: !303, file: !12, line: 593, type: !672, isLocal: false, isDefinition: false, scopeLine: 593, flags: DIFlagPublic | DIFlagPrototyped, isOptimized: true)
!672 = !DISubroutineType(types: !673)
!673 = !{!674, !669}
!674 = !DIDerivedType(tag: DW_TAG_typedef, name: "allocator_type", scope: !303, file: !12, line: 582, baseType: !381)
!675 = !DISubprogram(name: "_M_get_node", linkageName: "_ZNSt8_Rb_treeINSt7__cxx1112basic_stringIcSt11char_traitsIcESaIcEEESt4pairIKS5_S5_ESt10_Select1stIS8_ESt4lessIS5_ESaIS8_EE11_M_get_nodeEv", scope: !303, file: !12, line: 598, type: !676, isLocal: false, isDefinition: false, scopeLine: 598, flags: DIFlagProtected | DIFlagPrototyped, isOptimized: true)
!676 = !DISubroutineType(types: !677)
!677 = !{!302, !663}
!678 = !DISubprogram(name: "_M_put_node", linkageName: "_ZNSt8_Rb_treeINSt7__cxx1112basic_stringIcSt11char_traitsIcESaIcEEESt4pairIKS5_S5_ESt10_Select1stIS8_ESt4lessIS5_ESaIS8_EE11_M_put_nodeEPSt13_Rb_tree_nodeIS8_E", scope: !303, file: !12, line: 602, type: !679, isLocal: false, isDefinition: false, scopeLine: 602, flags: DIFlagProtected | DIFlagPrototyped, isOptimized: true)
!679 = !DISubroutineType(types: !680)
!680 = !{null, !663, !302}
!681 = !DISubprogram(name: "_M_destroy_node", linkageName: "_ZNSt8_Rb_treeINSt7__cxx1112basic_stringIcSt11char_traitsIcESaIcEEESt4pairIKS5_S5_ESt10_Select1stIS8_ESt4lessIS5_ESaIS8_EE15_M_destroy_nodeEPSt13_Rb_tree_nodeIS8_E", scope: !303, file: !12, line: 659, type: !679, isLocal: false, isDefinition: false, scopeLine: 659, flags: DIFlagProtected | DIFlagPrototyped, isOptimized: true)
!682 = !DISubprogram(name: "_M_drop_node", linkageName: "_ZNSt8_Rb_treeINSt7__cxx1112basic_stringIcSt11char_traitsIcESaIcEEESt4pairIKS5_S5_ESt10_Select1stIS8_ESt4lessIS5_ESaIS8_EE12_M_drop_nodeEPSt13_Rb_tree_nodeIS8_E", scope: !303, file: !12, line: 667, type: !679, isLocal: false, isDefinition: false, scopeLine: 667, flags: DIFlagProtected | DIFlagPrototyped, isOptimized: true)
!683 = !DISubprogram(name: "_M_root", linkageName: "_ZNSt8_Rb_treeINSt7__cxx1112basic_stringIcSt11char_traitsIcESaIcEEESt4pairIKS5_S5_ESt10_Select1stIS8_ESt4lessIS5_ESaIS8_EE7_M_rootEv", scope: !303, file: !12, line: 728, type: !684, isLocal: false, isDefinition: false, scopeLine: 728, flags: DIFlagProtected | DIFlagPrototyped, isOptimized: true)
!684 = !DISubroutineType(types: !685)
!685 = !{!686, !663}
!686 = !DIDerivedType(tag: DW_TAG_reference_type, baseType: !687, size: 64)
!687 = !DIDerivedType(tag: DW_TAG_typedef, name: "_Base_ptr", file: !12, line: 463, baseType: !471)
!688 = !DISubprogram(name: "_M_root", linkageName: "_ZNKSt8_Rb_treeINSt7__cxx1112basic_stringIcSt11char_traitsIcESaIcEEESt4pairIKS5_S5_ESt10_Select1stIS8_ESt4lessIS5_ESaIS8_EE7_M_rootEv", scope: !303, file: !12, line: 732, type: !689, isLocal: false, isDefinition: false, scopeLine: 732, flags: DIFlagProtected | DIFlagPrototyped, isOptimized: true)
!689 = !DISubroutineType(types: !690)
!690 = !{!691, !669}
!691 = !DIDerivedType(tag: DW_TAG_typedef, name: "_Const_Base_ptr", file: !12, line: 464, baseType: !481)
!692 = !DISubprogram(name: "_M_leftmost", linkageName: "_ZNSt8_Rb_treeINSt7__cxx1112basic_stringIcSt11char_traitsIcESaIcEEESt4pairIKS5_S5_ESt10_Select1stIS8_ESt4lessIS5_ESaIS8_EE11_M_leftmostEv", scope: !303, file: !12, line: 736, type: !684, isLocal: false, isDefinition: false, scopeLine: 736, flags: DIFlagProtected | DIFlagPrototyped, isOptimized: true)
!693 = !DISubprogram(name: "_M_leftmost", linkageName: "_ZNKSt8_Rb_treeINSt7__cxx1112basic_stringIcSt11char_traitsIcESaIcEEESt4pairIKS5_S5_ESt10_Select1stIS8_ESt4lessIS5_ESaIS8_EE11_M_leftmostEv", scope: !303, file: !12, line: 740, type: !689, isLocal: false, isDefinition: false, scopeLine: 740, flags: DIFlagProtected | DIFlagPrototyped, isOptimized: true)
!694 = !DISubprogram(name: "_M_rightmost", linkageName: "_ZNSt8_Rb_treeINSt7__cxx1112basic_stringIcSt11char_traitsIcESaIcEEESt4pairIKS5_S5_ESt10_Select1stIS8_ESt4lessIS5_ESaIS8_EE12_M_rightmostEv", scope: !303, file: !12, line: 744, type: !684, isLocal: false, isDefinition: false, scopeLine: 744, flags: DIFlagProtected | DIFlagPrototyped, isOptimized: true)
!695 = !DISubprogram(name: "_M_rightmost", linkageName: "_ZNKSt8_Rb_treeINSt7__cxx1112basic_stringIcSt11char_traitsIcESaIcEEESt4pairIKS5_S5_ESt10_Select1stIS8_ESt4lessIS5_ESaIS8_EE12_M_rightmostEv", scope: !303, file: !12, line: 748, type: !689, isLocal: false, isDefinition: false, scopeLine: 748, flags: DIFlagProtected | DIFlagPrototyped, isOptimized: true)
!696 = !DISubprogram(name: "_M_begin", linkageName: "_ZNSt8_Rb_treeINSt7__cxx1112basic_stringIcSt11char_traitsIcESaIcEEESt4pairIKS5_S5_ESt10_Select1stIS8_ESt4lessIS5_ESaIS8_EE8_M_beginEv", scope: !303, file: !12, line: 752, type: !676, isLocal: false, isDefinition: false, scopeLine: 752, flags: DIFlagProtected | DIFlagPrototyped, isOptimized: true)
!697 = !DISubprogram(name: "_M_begin", linkageName: "_ZNKSt8_Rb_treeINSt7__cxx1112basic_stringIcSt11char_traitsIcESaIcEEESt4pairIKS5_S5_ESt10_Select1stIS8_ESt4lessIS5_ESaIS8_EE8_M_beginEv", scope: !303, file: !12, line: 756, type: !698, isLocal: false, isDefinition: false, scopeLine: 756, flags: DIFlagProtected | DIFlagPrototyped, isOptimized: true)
!698 = !DISubroutineType(types: !699)
!699 = !{!700, !669}
!700 = !DIDerivedType(tag: DW_TAG_typedef, name: "_Const_Link_type", scope: !303, file: !12, line: 466, baseType: !558)
!701 = !DISubprogram(name: "_M_end", linkageName: "_ZNSt8_Rb_treeINSt7__cxx1112basic_stringIcSt11char_traitsIcESaIcEEESt4pairIKS5_S5_ESt10_Select1stIS8_ESt4lessIS5_ESaIS8_EE6_M_endEv", scope: !303, file: !12, line: 763, type: !702, isLocal: false, isDefinition: false, scopeLine: 763, flags: DIFlagProtected | DIFlagPrototyped, isOptimized: true)
!702 = !DISubroutineType(types: !703)
!703 = !{!687, !663}
!704 = !DISubprogram(name: "_M_end", linkageName: "_ZNKSt8_Rb_treeINSt7__cxx1112basic_stringIcSt11char_traitsIcESaIcEEESt4pairIKS5_S5_ESt10_Select1stIS8_ESt4lessIS5_ESaIS8_EE6_M_endEv", scope: !303, file: !12, line: 767, type: !689, isLocal: false, isDefinition: false, scopeLine: 767, flags: DIFlagProtected | DIFlagPrototyped, isOptimized: true)
!705 = !DISubprogram(name: "_S_value", linkageName: "_ZNSt8_Rb_treeINSt7__cxx1112basic_stringIcSt11char_traitsIcESaIcEEESt4pairIKS5_S5_ESt10_Select1stIS8_ESt4lessIS5_ESaIS8_EE8_S_valueEPKSt13_Rb_tree_nodeIS8_E", scope: !303, file: !12, line: 771, type: !706, isLocal: false, isDefinition: false, scopeLine: 771, flags: DIFlagProtected | DIFlagPrototyped | DIFlagStaticMember, isOptimized: true)
!706 = !DISubroutineType(types: !707)
!707 = !{!708, !700}
!708 = !DIDerivedType(tag: DW_TAG_typedef, name: "const_reference", scope: !303, file: !12, line: 579, baseType: !709)
!709 = !DIDerivedType(tag: DW_TAG_reference_type, baseType: !710, size: 64)
!710 = !DIDerivedType(tag: DW_TAG_const_type, baseType: !711)
!711 = !DIDerivedType(tag: DW_TAG_typedef, name: "value_type", scope: !303, file: !12, line: 575, baseType: !322)
!712 = !DISubprogram(name: "_S_key", linkageName: "_ZNSt8_Rb_treeINSt7__cxx1112basic_stringIcSt11char_traitsIcESaIcEEESt4pairIKS5_S5_ESt10_Select1stIS8_ESt4lessIS5_ESaIS8_EE6_S_keyEPKSt13_Rb_tree_nodeIS8_E", scope: !303, file: !12, line: 775, type: !713, isLocal: false, isDefinition: false, scopeLine: 775, flags: DIFlagProtected | DIFlagPrototyped | DIFlagStaticMember, isOptimized: true)
!713 = !DISubroutineType(types: !714)
!714 = !{!600, !700}
!715 = !DISubprogram(name: "_S_left", linkageName: "_ZNSt8_Rb_treeINSt7__cxx1112basic_stringIcSt11char_traitsIcESaIcEEESt4pairIKS5_S5_ESt10_Select1stIS8_ESt4lessIS5_ESaIS8_EE7_S_leftEPSt18_Rb_tree_node_base", scope: !303, file: !12, line: 779, type: !716, isLocal: false, isDefinition: false, scopeLine: 779, flags: DIFlagProtected | DIFlagPrototyped | DIFlagStaticMember, isOptimized: true)
!716 = !DISubroutineType(types: !717)
!717 = !{!302, !687}
!718 = !DISubprogram(name: "_S_left", linkageName: "_ZNSt8_Rb_treeINSt7__cxx1112basic_stringIcSt11char_traitsIcESaIcEEESt4pairIKS5_S5_ESt10_Select1stIS8_ESt4lessIS5_ESaIS8_EE7_S_leftEPKSt18_Rb_tree_node_base", scope: !303, file: !12, line: 783, type: !719, isLocal: false, isDefinition: false, scopeLine: 783, flags: DIFlagProtected | DIFlagPrototyped | DIFlagStaticMember, isOptimized: true)
!719 = !DISubroutineType(types: !720)
!720 = !{!700, !691}
!721 = !DISubprogram(name: "_S_right", linkageName: "_ZNSt8_Rb_treeINSt7__cxx1112basic_stringIcSt11char_traitsIcESaIcEEESt4pairIKS5_S5_ESt10_Select1stIS8_ESt4lessIS5_ESaIS8_EE8_S_rightEPSt18_Rb_tree_node_base", scope: !303, file: !12, line: 787, type: !716, isLocal: false, isDefinition: false, scopeLine: 787, flags: DIFlagProtected | DIFlagPrototyped | DIFlagStaticMember, isOptimized: true)
!722 = !DISubprogram(name: "_S_right", linkageName: "_ZNSt8_Rb_treeINSt7__cxx1112basic_stringIcSt11char_traitsIcESaIcEEESt4pairIKS5_S5_ESt10_Select1stIS8_ESt4lessIS5_ESaIS8_EE8_S_rightEPKSt18_Rb_tree_node_base", scope: !303, file: !12, line: 791, type: !719, isLocal: false, isDefinition: false, scopeLine: 791, flags: DIFlagProtected | DIFlagPrototyped | DIFlagStaticMember, isOptimized: true)
!723 = !DISubprogram(name: "_S_value", linkageName: "_ZNSt8_Rb_treeINSt7__cxx1112basic_stringIcSt11char_traitsIcESaIcEEESt4pairIKS5_S5_ESt10_Select1stIS8_ESt4lessIS5_ESaIS8_EE8_S_valueEPKSt18_Rb_tree_node_base", scope: !303, file: !12, line: 795, type: !724, isLocal: false, isDefinition: false, scopeLine: 795, flags: DIFlagProtected | DIFlagPrototyped | DIFlagStaticMember, isOptimized: true)
!724 = !DISubroutineType(types: !725)
!725 = !{!708, !691}
!726 = !DISubprogram(name: "_S_key", linkageName: "_ZNSt8_Rb_treeINSt7__cxx1112basic_stringIcSt11char_traitsIcESaIcEEESt4pairIKS5_S5_ESt10_Select1stIS8_ESt4lessIS5_ESaIS8_EE6_S_keyEPKSt18_Rb_tree_node_base", scope: !303, file: !12, line: 799, type: !727, isLocal: false, isDefinition: false, scopeLine: 799, flags: DIFlagProtected | DIFlagPrototyped | DIFlagStaticMember, isOptimized: true)
!727 = !DISubroutineType(types: !728)
!728 = !{!600, !691}
!729 = !DISubprogram(name: "_S_minimum", linkageName: "_ZNSt8_Rb_treeINSt7__cxx1112basic_stringIcSt11char_traitsIcESaIcEEESt4pairIKS5_S5_ESt10_Select1stIS8_ESt4lessIS5_ESaIS8_EE10_S_minimumEPSt18_Rb_tree_node_base", scope: !303, file: !12, line: 803, type: !730, isLocal: false, isDefinition: false, scopeLine: 803, flags: DIFlagProtected | DIFlagPrototyped | DIFlagStaticMember, isOptimized: true)
!730 = !DISubroutineType(types: !731)
!731 = !{!732, !687}
!732 = !DIDerivedType(tag: DW_TAG_typedef, name: "_Base_ptr", scope: !303, file: !12, line: 463, baseType: !471)
!733 = !DISubprogram(name: "_S_minimum", linkageName: "_ZNSt8_Rb_treeINSt7__cxx1112basic_stringIcSt11char_traitsIcESaIcEEESt4pairIKS5_S5_ESt10_Select1stIS8_ESt4lessIS5_ESaIS8_EE10_S_minimumEPKSt18_Rb_tree_node_base", scope: !303, file: !12, line: 807, type: !734, isLocal: false, isDefinition: false, scopeLine: 807, flags: DIFlagProtected | DIFlagPrototyped | DIFlagStaticMember, isOptimized: true)
!734 = !DISubroutineType(types: !735)
!735 = !{!736, !691}
!736 = !DIDerivedType(tag: DW_TAG_typedef, name: "_Const_Base_ptr", scope: !303, file: !12, line: 464, baseType: !481)
!737 = !DISubprogram(name: "_S_maximum", linkageName: "_ZNSt8_Rb_treeINSt7__cxx1112basic_stringIcSt11char_traitsIcESaIcEEESt4pairIKS5_S5_ESt10_Select1stIS8_ESt4lessIS5_ESaIS8_EE10_S_maximumEPSt18_Rb_tree_node_base", scope: !303, file: !12, line: 811, type: !730, isLocal: false, isDefinition: false, scopeLine: 811, flags: DIFlagProtected | DIFlagPrototyped | DIFlagStaticMember, isOptimized: true)
!738 = !DISubprogram(name: "_S_maximum", linkageName: "_ZNSt8_Rb_treeINSt7__cxx1112basic_stringIcSt11char_traitsIcESaIcEEESt4pairIKS5_S5_ESt10_Select1stIS8_ESt4lessIS5_ESaIS8_EE10_S_maximumEPKSt18_Rb_tree_node_base", scope: !303, file: !12, line: 815, type: !734, isLocal: false, isDefinition: false, scopeLine: 815, flags: DIFlagProtected | DIFlagPrototyped | DIFlagStaticMember, isOptimized: true)
!739 = !DISubprogram(name: "_M_get_insert_unique_pos", linkageName: "_ZNSt8_Rb_treeINSt7__cxx1112basic_stringIcSt11char_traitsIcESaIcEEESt4pairIKS5_S5_ESt10_Select1stIS8_ESt4lessIS5_ESaIS8_EE24_M_get_insert_unique_posERS7_", scope: !303, file: !12, line: 833, type: !740, isLocal: false, isDefinition: false, scopeLine: 833, flags: DIFlagPublic | DIFlagPrototyped, isOptimized: true)
!740 = !DISubroutineType(types: !741)
!741 = !{!742, !663, !797}
!742 = distinct !DICompositeType(tag: DW_TAG_structure_type, name: "pair<std::_Rb_tree_node_base *, std::_Rb_tree_node_base *>", scope: !13, file: !72, line: 208, size: 128, flags: DIFlagTypePassByValue, elements: !743, templateParams: !794, identifier: "_ZTSSt4pairIPSt18_Rb_tree_node_baseS1_E")
!743 = !{!744, !764, !765, !766, !772, !776, !784, !791}
!744 = !DIDerivedType(tag: DW_TAG_inheritance, scope: !742, baseType: !745, flags: DIFlagPrivate, extraData: i32 0)
!745 = distinct !DICompositeType(tag: DW_TAG_class_type, name: "__pair_base<std::_Rb_tree_node_base *, std::_Rb_tree_node_base *>", scope: !13, file: !72, line: 190, size: 8, flags: DIFlagTypePassByValue, elements: !746, templateParams: !761, identifier: "_ZTSSt11__pair_baseIPSt18_Rb_tree_node_baseS1_E")
!746 = !{!747, !751, !752, !757}
!747 = !DISubprogram(name: "__pair_base", scope: !745, file: !72, line: 194, type: !748, isLocal: false, isDefinition: false, scopeLine: 194, flags: DIFlagPrototyped, isOptimized: true)
!748 = !DISubroutineType(types: !749)
!749 = !{null, !750}
!750 = !DIDerivedType(tag: DW_TAG_pointer_type, baseType: !745, size: 64, flags: DIFlagArtificial | DIFlagObjectPointer)
!751 = !DISubprogram(name: "~__pair_base", scope: !745, file: !72, line: 195, type: !748, isLocal: false, isDefinition: false, scopeLine: 195, flags: DIFlagPrototyped, isOptimized: true)
!752 = !DISubprogram(name: "__pair_base", scope: !745, file: !72, line: 196, type: !753, isLocal: false, isDefinition: false, scopeLine: 196, flags: DIFlagPrototyped, isOptimized: true)
!753 = !DISubroutineType(types: !754)
!754 = !{null, !750, !755}
!755 = !DIDerivedType(tag: DW_TAG_reference_type, baseType: !756, size: 64)
!756 = !DIDerivedType(tag: DW_TAG_const_type, baseType: !745)
!757 = !DISubprogram(name: "operator=", linkageName: "_ZNSt11__pair_baseIPSt18_Rb_tree_node_baseS1_EaSERKS2_", scope: !745, file: !72, line: 197, type: !758, isLocal: false, isDefinition: false, scopeLine: 197, flags: DIFlagPrototyped, isOptimized: true)
!758 = !DISubroutineType(types: !759)
!759 = !{!760, !750, !755}
!760 = !DIDerivedType(tag: DW_TAG_reference_type, baseType: !745, size: 64)
!761 = !{!762, !763}
!762 = !DITemplateTypeParameter(name: "_U1", type: !471)
!763 = !DITemplateTypeParameter(name: "_U2", type: !471)
!764 = !DIDerivedType(tag: DW_TAG_member, name: "first", scope: !742, file: !72, line: 214, baseType: !471, size: 64)
!765 = !DIDerivedType(tag: DW_TAG_member, name: "second", scope: !742, file: !72, line: 215, baseType: !471, size: 64, offset: 64)
!766 = !DISubprogram(name: "pair", scope: !742, file: !72, line: 303, type: !767, isLocal: false, isDefinition: false, scopeLine: 303, flags: DIFlagPrototyped, isOptimized: true)
!767 = !DISubroutineType(types: !768)
!768 = !{null, !769, !770}
!769 = !DIDerivedType(tag: DW_TAG_pointer_type, baseType: !742, size: 64, flags: DIFlagArtificial | DIFlagObjectPointer)
!770 = !DIDerivedType(tag: DW_TAG_reference_type, baseType: !771, size: 64)
!771 = !DIDerivedType(tag: DW_TAG_const_type, baseType: !742)
!772 = !DISubprogram(name: "pair", scope: !742, file: !72, line: 304, type: !773, isLocal: false, isDefinition: false, scopeLine: 304, flags: DIFlagPrototyped, isOptimized: true)
!773 = !DISubroutineType(types: !774)
!774 = !{null, !769, !775}
!775 = !DIDerivedType(tag: DW_TAG_rvalue_reference_type, baseType: !742, size: 64)
!776 = !DISubprogram(name: "operator=", linkageName: "_ZNSt4pairIPSt18_Rb_tree_node_baseS1_EaSERKS2_", scope: !742, file: !72, line: 378, type: !777, isLocal: false, isDefinition: false, scopeLine: 378, flags: DIFlagPrototyped, isOptimized: true)
!777 = !DISubroutineType(types: !778)
!778 = !{!779, !769, !780}
!779 = !DIDerivedType(tag: DW_TAG_reference_type, baseType: !742, size: 64)
!780 = !DIDerivedType(tag: DW_TAG_typedef, name: "type", scope: !781, file: !112, line: 1970, baseType: !770)
!781 = distinct !DICompositeType(tag: DW_TAG_structure_type, name: "conditional<true, const std::pair<std::_Rb_tree_node_base *, std::_Rb_tree_node_base *> &, const std::__nonesuch_no_braces &>", scope: !13, file: !112, line: 1969, size: 8, flags: DIFlagTypePassByValue, elements: !114, templateParams: !782, identifier: "_ZTSSt11conditionalILb1ERKSt4pairIPSt18_Rb_tree_node_baseS2_ERKSt20__nonesuch_no_bracesE")
!782 = !{!116, !783, !119}
!783 = !DITemplateTypeParameter(name: "_Iftrue", type: !770)
!784 = !DISubprogram(name: "operator=", linkageName: "_ZNSt4pairIPSt18_Rb_tree_node_baseS1_EaSEOS2_", scope: !742, file: !72, line: 389, type: !785, isLocal: false, isDefinition: false, scopeLine: 389, flags: DIFlagPrototyped, isOptimized: true)
!785 = !DISubroutineType(types: !786)
!786 = !{!779, !769, !787}
!787 = !DIDerivedType(tag: DW_TAG_typedef, name: "type", scope: !788, file: !112, line: 1970, baseType: !775)
!788 = distinct !DICompositeType(tag: DW_TAG_structure_type, name: "conditional<true, std::pair<std::_Rb_tree_node_base *, std::_Rb_tree_node_base *> &&, std::__nonesuch_no_braces &&>", scope: !13, file: !112, line: 1969, size: 8, flags: DIFlagTypePassByValue, elements: !114, templateParams: !789, identifier: "_ZTSSt11conditionalILb1EOSt4pairIPSt18_Rb_tree_node_baseS2_EOSt20__nonesuch_no_bracesE")
!789 = !{!116, !790, !130}
!790 = !DITemplateTypeParameter(name: "_Iftrue", type: !775)
!791 = !DISubprogram(name: "swap", linkageName: "_ZNSt4pairIPSt18_Rb_tree_node_baseS1_E4swapERS2_", scope: !742, file: !72, line: 424, type: !792, isLocal: false, isDefinition: false, scopeLine: 424, flags: DIFlagPrototyped, isOptimized: true)
!792 = !DISubroutineType(types: !793)
!793 = !{null, !769, !779}
!794 = !{!795, !796}
!795 = !DITemplateTypeParameter(name: "_T1", type: !471)
!796 = !DITemplateTypeParameter(name: "_T2", type: !471)
!797 = !DIDerivedType(tag: DW_TAG_reference_type, baseType: !798, size: 64)
!798 = !DIDerivedType(tag: DW_TAG_const_type, baseType: !799)
!799 = !DIDerivedType(tag: DW_TAG_typedef, name: "key_type", scope: !303, file: !12, line: 574, baseType: !31)
!800 = !DISubprogram(name: "_M_get_insert_equal_pos", linkageName: "_ZNSt8_Rb_treeINSt7__cxx1112basic_stringIcSt11char_traitsIcESaIcEEESt4pairIKS5_S5_ESt10_Select1stIS8_ESt4lessIS5_ESaIS8_EE23_M_get_insert_equal_posERS7_", scope: !303, file: !12, line: 836, type: !740, isLocal: false, isDefinition: false, scopeLine: 836, flags: DIFlagPublic | DIFlagPrototyped, isOptimized: true)
!801 = !DISubprogram(name: "_M_get_insert_hint_unique_pos", linkageName: "_ZNSt8_Rb_treeINSt7__cxx1112basic_stringIcSt11char_traitsIcESaIcEEESt4pairIKS5_S5_ESt10_Select1stIS8_ESt4lessIS5_ESaIS8_EE29_M_get_insert_hint_unique_posESt23_Rb_tree_const_iteratorIS8_ERS7_", scope: !303, file: !12, line: 839, type: !802, isLocal: false, isDefinition: false, scopeLine: 839, flags: DIFlagPublic | DIFlagPrototyped, isOptimized: true)
!802 = !DISubroutineType(types: !803)
!803 = !{!742, !663, !804, !797}
!804 = !DIDerivedType(tag: DW_TAG_typedef, name: "const_iterator", scope: !303, file: !12, line: 820, baseType: !805)
!805 = !DICompositeType(tag: DW_TAG_structure_type, name: "_Rb_tree_const_iterator<std::pair<const std::__cxx11::basic_string<char>, std::__cxx11::basic_string<char> > >", scope: !13, file: !12, line: 326, flags: DIFlagFwdDecl, identifier: "_ZTSSt23_Rb_tree_const_iteratorISt4pairIKNSt7__cxx1112basic_stringIcSt11char_traitsIcESaIcEEES6_EE")
!806 = !DISubprogram(name: "_M_get_insert_hint_equal_pos", linkageName: "_ZNSt8_Rb_treeINSt7__cxx1112basic_stringIcSt11char_traitsIcESaIcEEESt4pairIKS5_S5_ESt10_Select1stIS8_ESt4lessIS5_ESaIS8_EE28_M_get_insert_hint_equal_posESt23_Rb_tree_const_iteratorIS8_ERS7_", scope: !303, file: !12, line: 843, type: !802, isLocal: false, isDefinition: false, scopeLine: 843, flags: DIFlagPublic | DIFlagPrototyped, isOptimized: true)
!807 = !DISubprogram(name: "_M_insert_node", linkageName: "_ZNSt8_Rb_treeINSt7__cxx1112basic_stringIcSt11char_traitsIcESaIcEEESt4pairIKS5_S5_ESt10_Select1stIS8_ESt4lessIS5_ESaIS8_EE14_M_insert_nodeEPSt18_Rb_tree_node_baseSG_PSt13_Rb_tree_nodeIS8_E", scope: !303, file: !12, line: 853, type: !808, isLocal: false, isDefinition: false, scopeLine: 853, flags: DIFlagPrototyped, isOptimized: true)
!808 = !DISubroutineType(types: !809)
!809 = !{!810, !663, !687, !687, !302}
!810 = !DIDerivedType(tag: DW_TAG_typedef, name: "iterator", scope: !303, file: !12, line: 819, baseType: !811)
!811 = !DICompositeType(tag: DW_TAG_structure_type, name: "_Rb_tree_iterator<std::pair<const std::__cxx11::basic_string<char>, std::__cxx11::basic_string<char> > >", scope: !13, file: !12, line: 256, flags: DIFlagFwdDecl, identifier: "_ZTSSt17_Rb_tree_iteratorISt4pairIKNSt7__cxx1112basic_stringIcSt11char_traitsIcESaIcEEES6_EE")
!812 = !DISubprogram(name: "_M_insert_lower_node", linkageName: "_ZNSt8_Rb_treeINSt7__cxx1112basic_stringIcSt11char_traitsIcESaIcEEESt4pairIKS5_S5_ESt10_Select1stIS8_ESt4lessIS5_ESaIS8_EE20_M_insert_lower_nodeEPSt18_Rb_tree_node_basePSt13_Rb_tree_nodeIS8_E", scope: !303, file: !12, line: 864, type: !813, isLocal: false, isDefinition: false, scopeLine: 864, flags: DIFlagPrototyped, isOptimized: true)
!813 = !DISubroutineType(types: !814)
!814 = !{!810, !663, !687, !302}
!815 = !DISubprogram(name: "_M_insert_equal_lower_node", linkageName: "_ZNSt8_Rb_treeINSt7__cxx1112basic_stringIcSt11char_traitsIcESaIcEEESt4pairIKS5_S5_ESt10_Select1stIS8_ESt4lessIS5_ESaIS8_EE26_M_insert_equal_lower_nodeEPSt13_Rb_tree_nodeIS8_E", scope: !303, file: !12, line: 867, type: !816, isLocal: false, isDefinition: false, scopeLine: 867, flags: DIFlagPrototyped, isOptimized: true)
!816 = !DISubroutineType(types: !817)
!817 = !{!810, !663, !302}
!818 = !DISubprogram(name: "_M_copy", linkageName: "_ZNSt8_Rb_treeINSt7__cxx1112basic_stringIcSt11char_traitsIcESaIcEEESt4pairIKS5_S5_ESt10_Select1stIS8_ESt4lessIS5_ESaIS8_EE7_M_copyERKSE_", scope: !303, file: !12, line: 899, type: !819, isLocal: false, isDefinition: false, scopeLine: 899, flags: DIFlagPrototyped, isOptimized: true)
!819 = !DISubroutineType(types: !820)
!820 = !{!302, !663, !821}
!821 = !DIDerivedType(tag: DW_TAG_reference_type, baseType: !670, size: 64)
!822 = !DISubprogram(name: "_M_erase", linkageName: "_ZNSt8_Rb_treeINSt7__cxx1112basic_stringIcSt11char_traitsIcESaIcEEESt4pairIKS5_S5_ESt10_Select1stIS8_ESt4lessIS5_ESaIS8_EE8_M_eraseEPSt13_Rb_tree_nodeIS8_E", scope: !303, file: !12, line: 906, type: !679, isLocal: false, isDefinition: false, scopeLine: 906, flags: DIFlagPrototyped, isOptimized: true)
!823 = !DISubprogram(name: "_M_lower_bound", linkageName: "_ZNSt8_Rb_treeINSt7__cxx1112basic_stringIcSt11char_traitsIcESaIcEEESt4pairIKS5_S5_ESt10_Select1stIS8_ESt4lessIS5_ESaIS8_EE14_M_lower_boundEPSt13_Rb_tree_nodeIS8_EPSt18_Rb_tree_node_baseRS7_", scope: !303, file: !12, line: 909, type: !824, isLocal: false, isDefinition: false, scopeLine: 909, flags: DIFlagPrototyped, isOptimized: true)
!824 = !DISubroutineType(types: !825)
!825 = !{!810, !663, !302, !687, !600}
!826 = !DISubprogram(name: "_M_lower_bound", linkageName: "_ZNKSt8_Rb_treeINSt7__cxx1112basic_stringIcSt11char_traitsIcESaIcEEESt4pairIKS5_S5_ESt10_Select1stIS8_ESt4lessIS5_ESaIS8_EE14_M_lower_boundEPKSt13_Rb_tree_nodeIS8_EPKSt18_Rb_tree_node_baseRS7_", scope: !303, file: !12, line: 913, type: !827, isLocal: false, isDefinition: false, scopeLine: 913, flags: DIFlagPrototyped, isOptimized: true)
!827 = !DISubroutineType(types: !828)
!828 = !{!804, !669, !700, !691, !600}
!829 = !DISubprogram(name: "_M_upper_bound", linkageName: "_ZNSt8_Rb_treeINSt7__cxx1112basic_stringIcSt11char_traitsIcESaIcEEESt4pairIKS5_S5_ESt10_Select1stIS8_ESt4lessIS5_ESaIS8_EE14_M_upper_boundEPSt13_Rb_tree_nodeIS8_EPSt18_Rb_tree_node_baseRS7_", scope: !303, file: !12, line: 917, type: !824, isLocal: false, isDefinition: false, scopeLine: 917, flags: DIFlagPrototyped, isOptimized: true)
!830 = !DISubprogram(name: "_M_upper_bound", linkageName: "_ZNKSt8_Rb_treeINSt7__cxx1112basic_stringIcSt11char_traitsIcESaIcEEESt4pairIKS5_S5_ESt10_Select1stIS8_ESt4lessIS5_ESaIS8_EE14_M_upper_boundEPKSt13_Rb_tree_nodeIS8_EPKSt18_Rb_tree_node_baseRS7_", scope: !303, file: !12, line: 921, type: !827, isLocal: false, isDefinition: false, scopeLine: 921, flags: DIFlagPrototyped, isOptimized: true)
!831 = !DISubprogram(name: "_Rb_tree", scope: !303, file: !12, line: 929, type: !832, isLocal: false, isDefinition: false, scopeLine: 929, flags: DIFlagPublic | DIFlagPrototyped, isOptimized: true)
!832 = !DISubroutineType(types: !833)
!833 = !{null, !663}
!834 = !DISubprogram(name: "_Rb_tree", scope: !303, file: !12, line: 932, type: !835, isLocal: false, isDefinition: false, scopeLine: 932, flags: DIFlagPublic | DIFlagPrototyped, isOptimized: true)
!835 = !DISubroutineType(types: !836)
!836 = !{null, !663, !610, !837}
!837 = !DIDerivedType(tag: DW_TAG_reference_type, baseType: !838, size: 64)
!838 = !DIDerivedType(tag: DW_TAG_const_type, baseType: !674)
!839 = !DISubprogram(name: "_Rb_tree", scope: !303, file: !12, line: 936, type: !840, isLocal: false, isDefinition: false, scopeLine: 936, flags: DIFlagPublic | DIFlagPrototyped, isOptimized: true)
!840 = !DISubroutineType(types: !841)
!841 = !{null, !663, !821}
!842 = !DISubprogram(name: "_Rb_tree", scope: !303, file: !12, line: 944, type: !843, isLocal: false, isDefinition: false, scopeLine: 944, flags: DIFlagPublic | DIFlagPrototyped, isOptimized: true)
!843 = !DISubroutineType(types: !844)
!844 = !{null, !663, !837}
!845 = !DISubprogram(name: "_Rb_tree", scope: !303, file: !12, line: 948, type: !846, isLocal: false, isDefinition: false, scopeLine: 948, flags: DIFlagPublic | DIFlagPrototyped, isOptimized: true)
!846 = !DISubroutineType(types: !847)
!847 = !{null, !663, !821, !837}
!848 = !DISubprogram(name: "_Rb_tree", scope: !303, file: !12, line: 955, type: !849, isLocal: false, isDefinition: false, scopeLine: 955, flags: DIFlagPublic | DIFlagPrototyped, isOptimized: true)
!849 = !DISubroutineType(types: !850)
!850 = !{null, !663, !851}
!851 = !DIDerivedType(tag: DW_TAG_rvalue_reference_type, baseType: !303, size: 64)
!852 = !DISubprogram(name: "_Rb_tree", scope: !303, file: !12, line: 957, type: !853, isLocal: false, isDefinition: false, scopeLine: 957, flags: DIFlagPublic | DIFlagPrototyped, isOptimized: true)
!853 = !DISubroutineType(types: !854)
!854 = !{null, !663, !851, !837}
!855 = !DISubprogram(name: "_Rb_tree", scope: !303, file: !12, line: 961, type: !856, isLocal: false, isDefinition: false, scopeLine: 961, flags: DIFlagPublic | DIFlagPrototyped, isOptimized: true)
!856 = !DISubroutineType(types: !857)
!857 = !{null, !663, !851, !656}
!858 = !DISubprogram(name: "~_Rb_tree", scope: !303, file: !12, line: 964, type: !832, isLocal: false, isDefinition: false, scopeLine: 964, flags: DIFlagPublic | DIFlagPrototyped, isOptimized: true)
!859 = !DISubprogram(name: "operator=", linkageName: "_ZNSt8_Rb_treeINSt7__cxx1112basic_stringIcSt11char_traitsIcESaIcEEESt4pairIKS5_S5_ESt10_Select1stIS8_ESt4lessIS5_ESaIS8_EEaSERKSE_", scope: !303, file: !12, line: 968, type: !860, isLocal: false, isDefinition: false, scopeLine: 968, flags: DIFlagPublic | DIFlagPrototyped, isOptimized: true)
!860 = !DISubroutineType(types: !861)
!861 = !{!862, !663, !821}
!862 = !DIDerivedType(tag: DW_TAG_reference_type, baseType: !303, size: 64)
!863 = !DISubprogram(name: "key_comp", linkageName: "_ZNKSt8_Rb_treeINSt7__cxx1112basic_stringIcSt11char_traitsIcESaIcEEESt4pairIKS5_S5_ESt10_Select1stIS8_ESt4lessIS5_ESaIS8_EE8key_compEv", scope: !303, file: !12, line: 972, type: !864, isLocal: false, isDefinition: false, scopeLine: 972, flags: DIFlagPublic | DIFlagPrototyped, isOptimized: true)
!864 = !DISubroutineType(types: !865)
!865 = !{!586, !669}
!866 = !DISubprogram(name: "begin", linkageName: "_ZNSt8_Rb_treeINSt7__cxx1112basic_stringIcSt11char_traitsIcESaIcEEESt4pairIKS5_S5_ESt10_Select1stIS8_ESt4lessIS5_ESaIS8_EE5beginEv", scope: !303, file: !12, line: 976, type: !867, isLocal: false, isDefinition: false, scopeLine: 976, flags: DIFlagPublic | DIFlagPrototyped, isOptimized: true)
!867 = !DISubroutineType(types: !868)
!868 = !{!810, !663}
!869 = !DISubprogram(name: "begin", linkageName: "_ZNKSt8_Rb_treeINSt7__cxx1112basic_stringIcSt11char_traitsIcESaIcEEESt4pairIKS5_S5_ESt10_Select1stIS8_ESt4lessIS5_ESaIS8_EE5beginEv", scope: !303, file: !12, line: 980, type: !870, isLocal: false, isDefinition: false, scopeLine: 980, flags: DIFlagPublic | DIFlagPrototyped, isOptimized: true)
!870 = !DISubroutineType(types: !871)
!871 = !{!804, !669}
!872 = !DISubprogram(name: "end", linkageName: "_ZNSt8_Rb_treeINSt7__cxx1112basic_stringIcSt11char_traitsIcESaIcEEESt4pairIKS5_S5_ESt10_Select1stIS8_ESt4lessIS5_ESaIS8_EE3endEv", scope: !303, file: !12, line: 984, type: !867, isLocal: false, isDefinition: false, scopeLine: 984, flags: DIFlagPublic | DIFlagPrototyped, isOptimized: true)
!873 = !DISubprogram(name: "end", linkageName: "_ZNKSt8_Rb_treeINSt7__cxx1112basic_stringIcSt11char_traitsIcESaIcEEESt4pairIKS5_S5_ESt10_Select1stIS8_ESt4lessIS5_ESaIS8_EE3endEv", scope: !303, file: !12, line: 988, type: !870, isLocal: false, isDefinition: false, scopeLine: 988, flags: DIFlagPublic | DIFlagPrototyped, isOptimized: true)
!874 = !DISubprogram(name: "rbegin", linkageName: "_ZNSt8_Rb_treeINSt7__cxx1112basic_stringIcSt11char_traitsIcESaIcEEESt4pairIKS5_S5_ESt10_Select1stIS8_ESt4lessIS5_ESaIS8_EE6rbeginEv", scope: !303, file: !12, line: 992, type: !875, isLocal: false, isDefinition: false, scopeLine: 992, flags: DIFlagPublic | DIFlagPrototyped, isOptimized: true)
!875 = !DISubroutineType(types: !876)
!876 = !{!877, !663}
!877 = !DIDerivedType(tag: DW_TAG_typedef, name: "reverse_iterator", scope: !303, file: !12, line: 822, baseType: !878)
!878 = !DICompositeType(tag: DW_TAG_class_type, name: "reverse_iterator<std::_Rb_tree_iterator<std::pair<const std::__cxx11::basic_string<char>, std::__cxx11::basic_string<char> > > >", scope: !13, file: !879, line: 101, flags: DIFlagFwdDecl, identifier: "_ZTSSt16reverse_iteratorISt17_Rb_tree_iteratorISt4pairIKNSt7__cxx1112basic_stringIcSt11char_traitsIcESaIcEEES7_EEE")
!879 = !DIFile(filename: "/usr/bin/../lib64/gcc/x86_64-pc-linux-gnu/8.2.1/../../../../include/c++/8.2.1/bits/stl_iterator.h", directory: "/home/firefox/firefox/mozilla-unified/obj-opt-x86_64-pc-linux-gnu/widget")
!880 = !DISubprogram(name: "rbegin", linkageName: "_ZNKSt8_Rb_treeINSt7__cxx1112basic_stringIcSt11char_traitsIcESaIcEEESt4pairIKS5_S5_ESt10_Select1stIS8_ESt4lessIS5_ESaIS8_EE6rbeginEv", scope: !303, file: !12, line: 996, type: !881, isLocal: false, isDefinition: false, scopeLine: 996, flags: DIFlagPublic | DIFlagPrototyped, isOptimized: true)
!881 = !DISubroutineType(types: !882)
!882 = !{!883, !669}
!883 = !DIDerivedType(tag: DW_TAG_typedef, name: "const_reverse_iterator", scope: !303, file: !12, line: 823, baseType: !884)
!884 = !DICompositeType(tag: DW_TAG_class_type, name: "reverse_iterator<std::_Rb_tree_const_iterator<std::pair<const std::__cxx11::basic_string<char>, std::__cxx11::basic_string<char> > > >", scope: !13, file: !879, line: 101, flags: DIFlagFwdDecl, identifier: "_ZTSSt16reverse_iteratorISt23_Rb_tree_const_iteratorISt4pairIKNSt7__cxx1112basic_stringIcSt11char_traitsIcESaIcEEES7_EEE")
!885 = !DISubprogram(name: "rend", linkageName: "_ZNSt8_Rb_treeINSt7__cxx1112basic_stringIcSt11char_traitsIcESaIcEEESt4pairIKS5_S5_ESt10_Select1stIS8_ESt4lessIS5_ESaIS8_EE4rendEv", scope: !303, file: !12, line: 1000, type: !875, isLocal: false, isDefinition: false, scopeLine: 1000, flags: DIFlagPublic | DIFlagPrototyped, isOptimized: true)
!886 = !DISubprogram(name: "rend", linkageName: "_ZNKSt8_Rb_treeINSt7__cxx1112basic_stringIcSt11char_traitsIcESaIcEEESt4pairIKS5_S5_ESt10_Select1stIS8_ESt4lessIS5_ESaIS8_EE4rendEv", scope: !303, file: !12, line: 1004, type: !881, isLocal: false, isDefinition: false, scopeLine: 1004, flags: DIFlagPublic | DIFlagPrototyped, isOptimized: true)
!887 = !DISubprogram(name: "empty", linkageName: "_ZNKSt8_Rb_treeINSt7__cxx1112basic_stringIcSt11char_traitsIcESaIcEEESt4pairIKS5_S5_ESt10_Select1stIS8_ESt4lessIS5_ESaIS8_EE5emptyEv", scope: !303, file: !12, line: 1008, type: !888, isLocal: false, isDefinition: false, scopeLine: 1008, flags: DIFlagPublic | DIFlagPrototyped, isOptimized: true)
!888 = !DISubroutineType(types: !889)
!889 = !{!117, !669}
!890 = !DISubprogram(name: "size", linkageName: "_ZNKSt8_Rb_treeINSt7__cxx1112basic_stringIcSt11char_traitsIcESaIcEEESt4pairIKS5_S5_ESt10_Select1stIS8_ESt4lessIS5_ESaIS8_EE4sizeEv", scope: !303, file: !12, line: 1012, type: !891, isLocal: false, isDefinition: false, scopeLine: 1012, flags: DIFlagPublic | DIFlagPrototyped, isOptimized: true)
!891 = !DISubroutineType(types: !892)
!892 = !{!893, !669}
!893 = !DIDerivedType(tag: DW_TAG_typedef, name: "size_type", file: !12, line: 580, baseType: !175)
!894 = !DISubprogram(name: "max_size", linkageName: "_ZNKSt8_Rb_treeINSt7__cxx1112basic_stringIcSt11char_traitsIcESaIcEEESt4pairIKS5_S5_ESt10_Select1stIS8_ESt4lessIS5_ESaIS8_EE8max_sizeEv", scope: !303, file: !12, line: 1016, type: !891, isLocal: false, isDefinition: false, scopeLine: 1016, flags: DIFlagPublic | DIFlagPrototyped, isOptimized: true)
!895 = !DISubprogram(name: "swap", linkageName: "_ZNSt8_Rb_treeINSt7__cxx1112basic_stringIcSt11char_traitsIcESaIcEEESt4pairIKS5_S5_ESt10_Select1stIS8_ESt4lessIS5_ESaIS8_EE4swapERSE_", scope: !303, file: !12, line: 1020, type: !896, isLocal: false, isDefinition: false, scopeLine: 1020, flags: DIFlagPublic | DIFlagPrototyped, isOptimized: true)
!896 = !DISubroutineType(types: !897)
!897 = !{null, !663, !862}
!898 = !DISubprogram(name: "_M_erase_aux", linkageName: "_ZNSt8_Rb_treeINSt7__cxx1112basic_stringIcSt11char_traitsIcESaIcEEESt4pairIKS5_S5_ESt10_Select1stIS8_ESt4lessIS5_ESaIS8_EE12_M_erase_auxESt23_Rb_tree_const_iteratorIS8_E", scope: !303, file: !12, line: 1113, type: !899, isLocal: false, isDefinition: false, scopeLine: 1113, flags: DIFlagPrototyped, isOptimized: true)
!899 = !DISubroutineType(types: !900)
!900 = !{null, !663, !804}
!901 = !DISubprogram(name: "_M_erase_aux", linkageName: "_ZNSt8_Rb_treeINSt7__cxx1112basic_stringIcSt11char_traitsIcESaIcEEESt4pairIKS5_S5_ESt10_Select1stIS8_ESt4lessIS5_ESaIS8_EE12_M_erase_auxESt23_Rb_tree_const_iteratorIS8_ESG_", scope: !303, file: !12, line: 1116, type: !902, isLocal: false, isDefinition: false, scopeLine: 1116, flags: DIFlagPrototyped, isOptimized: true)
!902 = !DISubroutineType(types: !903)
!903 = !{null, !663, !804, !804}
!904 = !DISubprogram(name: "erase", linkageName: "_ZNSt8_Rb_treeINSt7__cxx1112basic_stringIcSt11char_traitsIcESaIcEEESt4pairIKS5_S5_ESt10_Select1stIS8_ESt4lessIS5_ESaIS8_EE5eraseB5cxx11ESt23_Rb_tree_const_iteratorIS8_E", scope: !303, file: !12, line: 1124, type: !905, isLocal: false, isDefinition: false, scopeLine: 1124, flags: DIFlagPublic | DIFlagPrototyped, isOptimized: true)
!905 = !DISubroutineType(types: !906)
!906 = !{!810, !663, !804}
!907 = !DISubprogram(name: "erase", linkageName: "_ZNSt8_Rb_treeINSt7__cxx1112basic_stringIcSt11char_traitsIcESaIcEEESt4pairIKS5_S5_ESt10_Select1stIS8_ESt4lessIS5_ESaIS8_EE5eraseB5cxx11ESt17_Rb_tree_iteratorIS8_E", scope: !303, file: !12, line: 1136, type: !908, isLocal: false, isDefinition: false, scopeLine: 1136, flags: DIFlagPublic | DIFlagPrototyped, isOptimized: true)
!908 = !DISubroutineType(types: !909)
!909 = !{!810, !663, !810}
!910 = !DISubprogram(name: "erase", linkageName: "_ZNSt8_Rb_treeINSt7__cxx1112basic_stringIcSt11char_traitsIcESaIcEEESt4pairIKS5_S5_ESt10_Select1stIS8_ESt4lessIS5_ESaIS8_EE5eraseERS7_", scope: !303, file: !12, line: 1160, type: !911, isLocal: false, isDefinition: false, scopeLine: 1160, flags: DIFlagPublic | DIFlagPrototyped, isOptimized: true)
!911 = !DISubroutineType(types: !912)
!912 = !{!913, !663, !797}
!913 = !DIDerivedType(tag: DW_TAG_typedef, name: "size_type", scope: !303, file: !12, line: 580, baseType: !175)
!914 = !DISubprogram(name: "erase", linkageName: "_ZNSt8_Rb_treeINSt7__cxx1112basic_stringIcSt11char_traitsIcESaIcEEESt4pairIKS5_S5_ESt10_Select1stIS8_ESt4lessIS5_ESaIS8_EE5eraseB5cxx11ESt23_Rb_tree_const_iteratorIS8_ESG_", scope: !303, file: !12, line: 1167, type: !915, isLocal: false, isDefinition: false, scopeLine: 1167, flags: DIFlagPublic | DIFlagPrototyped, isOptimized: true)
!915 = !DISubroutineType(types: !916)
!916 = !{!810, !663, !804, !804}
!917 = !DISubprogram(name: "erase", linkageName: "_ZNSt8_Rb_treeINSt7__cxx1112basic_stringIcSt11char_traitsIcESaIcEEESt4pairIKS5_S5_ESt10_Select1stIS8_ESt4lessIS5_ESaIS8_EE5eraseEPS7_SF_", scope: !303, file: !12, line: 1182, type: !918, isLocal: false, isDefinition: false, scopeLine: 1182, flags: DIFlagPublic | DIFlagPrototyped, isOptimized: true)
!918 = !DISubroutineType(types: !919)
!919 = !{null, !663, !920, !920}
!920 = !DIDerivedType(tag: DW_TAG_pointer_type, baseType: !798, size: 64)
!921 = !DISubprogram(name: "clear", linkageName: "_ZNSt8_Rb_treeINSt7__cxx1112basic_stringIcSt11char_traitsIcESaIcEEESt4pairIKS5_S5_ESt10_Select1stIS8_ESt4lessIS5_ESaIS8_EE5clearEv", scope: !303, file: !12, line: 1185, type: !832, isLocal: false, isDefinition: false, scopeLine: 1185, flags: DIFlagPublic | DIFlagPrototyped, isOptimized: true)
!922 = !DISubprogram(name: "find", linkageName: "_ZNSt8_Rb_treeINSt7__cxx1112basic_stringIcSt11char_traitsIcESaIcEEESt4pairIKS5_S5_ESt10_Select1stIS8_ESt4lessIS5_ESaIS8_EE4findERS7_", scope: !303, file: !12, line: 1193, type: !923, isLocal: false, isDefinition: false, scopeLine: 1193, flags: DIFlagPublic | DIFlagPrototyped, isOptimized: true)
!923 = !DISubroutineType(types: !924)
!924 = !{!810, !663, !797}
!925 = !DISubprogram(name: "find", linkageName: "_ZNKSt8_Rb_treeINSt7__cxx1112basic_stringIcSt11char_traitsIcESaIcEEESt4pairIKS5_S5_ESt10_Select1stIS8_ESt4lessIS5_ESaIS8_EE4findERS7_", scope: !303, file: !12, line: 1196, type: !926, isLocal: false, isDefinition: false, scopeLine: 1196, flags: DIFlagPublic | DIFlagPrototyped, isOptimized: true)
!926 = !DISubroutineType(types: !927)
!927 = !{!804, !669, !797}
!928 = !DISubprogram(name: "count", linkageName: "_ZNKSt8_Rb_treeINSt7__cxx1112basic_stringIcSt11char_traitsIcESaIcEEESt4pairIKS5_S5_ESt10_Select1stIS8_ESt4lessIS5_ESaIS8_EE5countERS7_", scope: !303, file: !12, line: 1199, type: !929, isLocal: false, isDefinition: false, scopeLine: 1199, flags: DIFlagPublic | DIFlagPrototyped, isOptimized: true)
!929 = !DISubroutineType(types: !930)
!930 = !{!913, !669, !797}
!931 = !DISubprogram(name: "lower_bound", linkageName: "_ZNSt8_Rb_treeINSt7__cxx1112basic_stringIcSt11char_traitsIcESaIcEEESt4pairIKS5_S5_ESt10_Select1stIS8_ESt4lessIS5_ESaIS8_EE11lower_boundERS7_", scope: !303, file: !12, line: 1202, type: !923, isLocal: false, isDefinition: false, scopeLine: 1202, flags: DIFlagPublic | DIFlagPrototyped, isOptimized: true)
!932 = !DISubprogram(name: "lower_bound", linkageName: "_ZNKSt8_Rb_treeINSt7__cxx1112basic_stringIcSt11char_traitsIcESaIcEEESt4pairIKS5_S5_ESt10_Select1stIS8_ESt4lessIS5_ESaIS8_EE11lower_boundERS7_", scope: !303, file: !12, line: 1206, type: !926, isLocal: false, isDefinition: false, scopeLine: 1206, flags: DIFlagPublic | DIFlagPrototyped, isOptimized: true)
!933 = !DISubprogram(name: "upper_bound", linkageName: "_ZNSt8_Rb_treeINSt7__cxx1112basic_stringIcSt11char_traitsIcESaIcEEESt4pairIKS5_S5_ESt10_Select1stIS8_ESt4lessIS5_ESaIS8_EE11upper_boundERS7_", scope: !303, file: !12, line: 1210, type: !923, isLocal: false, isDefinition: false, scopeLine: 1210, flags: DIFlagPublic | DIFlagPrototyped, isOptimized: true)
!934 = !DISubprogram(name: "upper_bound", linkageName: "_ZNKSt8_Rb_treeINSt7__cxx1112basic_stringIcSt11char_traitsIcESaIcEEESt4pairIKS5_S5_ESt10_Select1stIS8_ESt4lessIS5_ESaIS8_EE11upper_boundERS7_", scope: !303, file: !12, line: 1214, type: !926, isLocal: false, isDefinition: false, scopeLine: 1214, flags: DIFlagPublic | DIFlagPrototyped, isOptimized: true)
!935 = !DISubprogram(name: "equal_range", linkageName: "_ZNSt8_Rb_treeINSt7__cxx1112basic_stringIcSt11char_traitsIcESaIcEEESt4pairIKS5_S5_ESt10_Select1stIS8_ESt4lessIS5_ESaIS8_EE11equal_rangeERS7_", scope: !303, file: !12, line: 1218, type: !936, isLocal: false, isDefinition: false, scopeLine: 1218, flags: DIFlagPublic | DIFlagPrototyped, isOptimized: true)
!936 = !DISubroutineType(types: !937)
!937 = !{!938, !663, !797}
!938 = !DICompositeType(tag: DW_TAG_structure_type, name: "pair<std::_Rb_tree_iterator<std::pair<const std::__cxx11::basic_string<char>, std::__cxx11::basic_string<char> > >, std::_Rb_tree_iterator<std::pair<const std::__cxx11::basic_string<char>, std::__cxx11::basic_string<char> > > >", scope: !13, file: !72, line: 208, flags: DIFlagFwdDecl, identifier: "_ZTSSt4pairISt17_Rb_tree_iteratorIS_IKNSt7__cxx1112basic_stringIcSt11char_traitsIcESaIcEEES6_EES9_E")
!939 = !DISubprogram(name: "equal_range", linkageName: "_ZNKSt8_Rb_treeINSt7__cxx1112basic_stringIcSt11char_traitsIcESaIcEEESt4pairIKS5_S5_ESt10_Select1stIS8_ESt4lessIS5_ESaIS8_EE11equal_rangeERS7_", scope: !303, file: !12, line: 1221, type: !940, isLocal: false, isDefinition: false, scopeLine: 1221, flags: DIFlagPublic | DIFlagPrototyped, isOptimized: true)
!940 = !DISubroutineType(types: !941)
!941 = !{!942, !669, !797}
!942 = !DICompositeType(tag: DW_TAG_structure_type, name: "pair<std::_Rb_tree_const_iterator<std::pair<const std::__cxx11::basic_string<char>, std::__cxx11::basic_string<char> > >, std::_Rb_tree_const_iterator<std::pair<const std::__cxx11::basic_string<char>, std::__cxx11::basic_string<char> > > >", scope: !13, file: !72, line: 208, flags: DIFlagFwdDecl, identifier: "_ZTSSt4pairISt23_Rb_tree_const_iteratorIS_IKNSt7__cxx1112basic_stringIcSt11char_traitsIcESaIcEEES6_EES9_E")
!943 = !DISubprogram(name: "__rb_verify", linkageName: "_ZNKSt8_Rb_treeINSt7__cxx1112basic_stringIcSt11char_traitsIcESaIcEEESt4pairIKS5_S5_ESt10_Select1stIS8_ESt4lessIS5_ESaIS8_EE11__rb_verifyEv", scope: !303, file: !12, line: 1342, type: !888, isLocal: false, isDefinition: false, scopeLine: 1342, flags: DIFlagPublic | DIFlagPrototyped, isOptimized: true)
!944 = !DISubprogram(name: "operator=", linkageName: "_ZNSt8_Rb_treeINSt7__cxx1112basic_stringIcSt11char_traitsIcESaIcEEESt4pairIKS5_S5_ESt10_Select1stIS8_ESt4lessIS5_ESaIS8_EEaSEOSE_", scope: !303, file: !12, line: 1346, type: !945, isLocal: false, isDefinition: false, scopeLine: 1346, flags: DIFlagPublic | DIFlagPrototyped, isOptimized: true)
!945 = !DISubroutineType(types: !946)
!946 = !{!862, !663, !851}
!947 = !DISubprogram(name: "_M_move_data", linkageName: "_ZNSt8_Rb_treeINSt7__cxx1112basic_stringIcSt11char_traitsIcESaIcEEESt4pairIKS5_S5_ESt10_Select1stIS8_ESt4lessIS5_ESaIS8_EE12_M_move_dataERSE_St17integral_constantIbLb1EE", scope: !303, file: !12, line: 1361, type: !948, isLocal: false, isDefinition: false, scopeLine: 1361, flags: DIFlagPrototyped, isOptimized: true)
!948 = !DISubroutineType(types: !949)
!949 = !{null, !663, !862, !950}
!950 = !DIDerivedType(tag: DW_TAG_typedef, name: "true_type", scope: !13, file: !112, line: 75, baseType: !951)
!951 = distinct !DICompositeType(tag: DW_TAG_structure_type, name: "integral_constant<bool, true>", scope: !13, file: !112, line: 57, size: 8, flags: DIFlagTypePassByValue, elements: !952, templateParams: !962, identifier: "_ZTSSt17integral_constantIbLb1EE")
!952 = !{!953, !955, !961}
!953 = !DIDerivedType(tag: DW_TAG_member, name: "value", scope: !951, file: !112, line: 59, baseType: !954, flags: DIFlagStaticMember, extraData: i1 true)
!954 = !DIDerivedType(tag: DW_TAG_const_type, baseType: !117)
!955 = !DISubprogram(name: "operator bool", linkageName: "_ZNKSt17integral_constantIbLb1EEcvbEv", scope: !951, file: !112, line: 62, type: !956, isLocal: false, isDefinition: false, scopeLine: 62, flags: DIFlagPrototyped, isOptimized: true)
!956 = !DISubroutineType(types: !957)
!957 = !{!958, !959}
!958 = !DIDerivedType(tag: DW_TAG_typedef, name: "value_type", scope: !951, file: !112, line: 60, baseType: !117)
!959 = !DIDerivedType(tag: DW_TAG_pointer_type, baseType: !960, size: 64, flags: DIFlagArtificial | DIFlagObjectPointer)
!960 = !DIDerivedType(tag: DW_TAG_const_type, baseType: !951)
!961 = !DISubprogram(name: "operator()", linkageName: "_ZNKSt17integral_constantIbLb1EEclEv", scope: !951, file: !112, line: 67, type: !956, isLocal: false, isDefinition: false, scopeLine: 67, flags: DIFlagPrototyped, isOptimized: true)
!962 = !{!963, !964}
!963 = !DITemplateTypeParameter(name: "_Tp", type: !117)
!964 = !DITemplateValueParameter(name: "__v", type: !117, value: i8 1)
!965 = !DISubprogram(name: "_M_move_data", linkageName: "_ZNSt8_Rb_treeINSt7__cxx1112basic_stringIcSt11char_traitsIcESaIcEEESt4pairIKS5_S5_ESt10_Select1stIS8_ESt4lessIS5_ESaIS8_EE12_M_move_dataERSE_St17integral_constantIbLb0EE", scope: !303, file: !12, line: 1367, type: !966, isLocal: false, isDefinition: false, scopeLine: 1367, flags: DIFlagPrototyped, isOptimized: true)
!966 = !DISubroutineType(types: !967)
!967 = !{null, !663, !862, !968}
!968 = !DIDerivedType(tag: DW_TAG_typedef, name: "false_type", scope: !13, file: !112, line: 78, baseType: !969)
!969 = distinct !DICompositeType(tag: DW_TAG_structure_type, name: "integral_constant<bool, false>", scope: !13, file: !112, line: 57, size: 8, flags: DIFlagTypePassByValue, elements: !970, templateParams: !979, identifier: "_ZTSSt17integral_constantIbLb0EE")
!970 = !{!971, !972, !978}
!971 = !DIDerivedType(tag: DW_TAG_member, name: "value", scope: !969, file: !112, line: 59, baseType: !954, flags: DIFlagStaticMember, extraData: i1 false)
!972 = !DISubprogram(name: "operator bool", linkageName: "_ZNKSt17integral_constantIbLb0EEcvbEv", scope: !969, file: !112, line: 62, type: !973, isLocal: false, isDefinition: false, scopeLine: 62, flags: DIFlagPrototyped, isOptimized: true)
!973 = !DISubroutineType(types: !974)
!974 = !{!975, !976}
!975 = !DIDerivedType(tag: DW_TAG_typedef, name: "value_type", scope: !969, file: !112, line: 60, baseType: !117)
!976 = !DIDerivedType(tag: DW_TAG_pointer_type, baseType: !977, size: 64, flags: DIFlagArtificial | DIFlagObjectPointer)
!977 = !DIDerivedType(tag: DW_TAG_const_type, baseType: !969)
!978 = !DISubprogram(name: "operator()", linkageName: "_ZNKSt17integral_constantIbLb0EEclEv", scope: !969, file: !112, line: 67, type: !973, isLocal: false, isDefinition: false, scopeLine: 67, flags: DIFlagPrototyped, isOptimized: true)
!979 = !{!963, !980}
!980 = !DITemplateValueParameter(name: "__v", type: !117, value: i8 0)
!981 = !DISubprogram(name: "_M_move_assign", linkageName: "_ZNSt8_Rb_treeINSt7__cxx1112basic_stringIcSt11char_traitsIcESaIcEEESt4pairIKS5_S5_ESt10_Select1stIS8_ESt4lessIS5_ESaIS8_EE14_M_move_assignERSE_St17integral_constantIbLb1EE", scope: !303, file: !12, line: 1371, type: !948, isLocal: false, isDefinition: false, scopeLine: 1371, flags: DIFlagPrototyped, isOptimized: true)
!982 = !DISubprogram(name: "_M_move_assign", linkageName: "_ZNSt8_Rb_treeINSt7__cxx1112basic_stringIcSt11char_traitsIcESaIcEEESt4pairIKS5_S5_ESt10_Select1stIS8_ESt4lessIS5_ESaIS8_EE14_M_move_assignERSE_St17integral_constantIbLb0EE", scope: !303, file: !12, line: 1376, type: !966, isLocal: false, isDefinition: false, scopeLine: 1376, flags: DIFlagPrototyped, isOptimized: true)
!983 = !{!984, !528, !985, !987, !446}
!984 = !DITemplateTypeParameter(name: "_Key", type: !31)
!985 = !DITemplateTypeParameter(name: "_KeyOfValue", type: !986)
!986 = !DICompositeType(tag: DW_TAG_structure_type, name: "_Select1st<std::pair<const std::__cxx11::basic_string<char>, std::__cxx11::basic_string<char> > >", scope: !13, file: !587, line: 1123, flags: DIFlagFwdDecl, identifier: "_ZTSSt10_Select1stISt4pairIKNSt7__cxx1112basic_stringIcSt11char_traitsIcESaIcEEES6_EE")
!987 = !DITemplateTypeParameter(name: "_Compare", type: !586)
!988 = !DIDerivedType(tag: DW_TAG_pointer_type, baseType: !989, size: 64)
!989 = !DIDerivedType(tag: DW_TAG_typedef, name: "_Tp_alloc_type", scope: !990, file: !49, line: 84, baseType: !1156)
!990 = distinct !DICompositeType(tag: DW_TAG_structure_type, name: "_Vector_base<std::__cxx11::basic_string<char>, std::allocator<std::__cxx11::basic_string<char> > >", scope: !13, file: !49, line: 81, size: 192, flags: DIFlagTypePassByReference, elements: !991, templateParams: !1155, identifier: "_ZTSSt12_Vector_baseINSt7__cxx1112basic_stringIcSt11char_traitsIcESaIcEEESaIS5_EE")
!991 = !{!992, !1109, !1114, !1119, !1123, !1126, !1131, !1134, !1137, !1140, !1144, !1147, !1148, !1151, !1154}
!992 = !DIDerivedType(tag: DW_TAG_member, name: "_M_impl", scope: !990, file: !49, line: 290, baseType: !993, size: 192)
!993 = distinct !DICompositeType(tag: DW_TAG_structure_type, name: "_Vector_impl", scope: !990, file: !49, line: 88, size: 192, flags: DIFlagTypePassByReference, elements: !994, identifier: "_ZTSNSt12_Vector_baseINSt7__cxx1112basic_stringIcSt11char_traitsIcESaIcEEESaIS5_EE12_Vector_implE")
!994 = !{!995, !996, !1090, !1091, !1092, !1096, !1101, !1105}
!995 = !DIDerivedType(tag: DW_TAG_inheritance, scope: !993, baseType: !989, extraData: i32 0)
!996 = !DIDerivedType(tag: DW_TAG_member, name: "_M_start", scope: !993, file: !49, line: 91, baseType: !997, size: 64)
!997 = !DIDerivedType(tag: DW_TAG_typedef, name: "pointer", scope: !990, file: !49, line: 86, baseType: !998)
!998 = !DIDerivedType(tag: DW_TAG_typedef, name: "pointer", scope: !999, file: !59, line: 59, baseType: !1007)
!999 = distinct !DICompositeType(tag: DW_TAG_structure_type, name: "__alloc_traits<std::allocator<std::__cxx11::basic_string<char> >, std::__cxx11::basic_string<char> >", scope: !5, file: !59, line: 50, size: 8, flags: DIFlagTypePassByValue, elements: !1000, templateParams: !1088, identifier: "_ZTSN9__gnu_cxx14__alloc_traitsISaINSt7__cxx1112basic_stringIcSt11char_traitsIcESaIcEEEES6_EE")
!1000 = !{!1001, !1076, !1079, !1083, !1084, !1085, !1086, !1087}
!1001 = !DIDerivedType(tag: DW_TAG_inheritance, scope: !999, baseType: !1002, extraData: i32 0)
!1002 = distinct !DICompositeType(tag: DW_TAG_structure_type, name: "allocator_traits<std::allocator<std::__cxx11::basic_string<char> > >", scope: !13, file: !64, line: 384, size: 8, flags: DIFlagTypePassByValue, elements: !1003, templateParams: !1074, identifier: "_ZTSSt16allocator_traitsISaINSt7__cxx1112basic_stringIcSt11char_traitsIcESaIcEEEEE")
!1003 = !{!1004, !1059, !1062, !1065, !1071}
!1004 = !DISubprogram(name: "allocate", linkageName: "_ZNSt16allocator_traitsISaINSt7__cxx1112basic_stringIcSt11char_traitsIcESaIcEEEEE8allocateERS6_m", scope: !1002, file: !64, line: 435, type: !1005, isLocal: false, isDefinition: false, scopeLine: 435, flags: DIFlagPrototyped | DIFlagStaticMember, isOptimized: true)
!1005 = !DISubroutineType(types: !1006)
!1006 = !{!1007, !1009, !198}
!1007 = !DIDerivedType(tag: DW_TAG_typedef, name: "pointer", scope: !1002, file: !64, line: 392, baseType: !1008)
!1008 = !DIDerivedType(tag: DW_TAG_pointer_type, baseType: !31, size: 64)
!1009 = !DIDerivedType(tag: DW_TAG_reference_type, baseType: !1010, size: 64)
!1010 = !DIDerivedType(tag: DW_TAG_typedef, name: "allocator_type", scope: !1002, file: !64, line: 387, baseType: !1011)
!1011 = distinct !DICompositeType(tag: DW_TAG_class_type, name: "allocator<std::__cxx11::basic_string<char> >", scope: !13, file: !141, line: 108, size: 8, flags: DIFlagTypePassByReference, elements: !1012, templateParams: !601, identifier: "_ZTSSaINSt7__cxx1112basic_stringIcSt11char_traitsIcESaIcEEEE")
!1012 = !{!1013, !1049, !1053, !1058}
!1013 = !DIDerivedType(tag: DW_TAG_inheritance, scope: !1011, baseType: !1014, flags: DIFlagPublic, extraData: i32 0)
!1014 = !DIDerivedType(tag: DW_TAG_typedef, name: "__allocator_base<std::__cxx11::basic_string<char> >", scope: !13, file: !145, line: 48, baseType: !1015)
!1015 = distinct !DICompositeType(tag: DW_TAG_class_type, name: "new_allocator<std::__cxx11::basic_string<char> >", scope: !5, file: !147, line: 58, size: 8, flags: DIFlagTypePassByReference, elements: !1016, templateParams: !601, identifier: "_ZTSN9__gnu_cxx13new_allocatorINSt7__cxx1112basic_stringIcSt11char_traitsIcESaIcEEEEE")
!1016 = !{!1017, !1021, !1026, !1027, !1034, !1040, !1043, !1046}
!1017 = !DISubprogram(name: "new_allocator", scope: !1015, file: !147, line: 79, type: !1018, isLocal: false, isDefinition: false, scopeLine: 79, flags: DIFlagPublic | DIFlagPrototyped, isOptimized: true)
!1018 = !DISubroutineType(types: !1019)
!1019 = !{null, !1020}
!1020 = !DIDerivedType(tag: DW_TAG_pointer_type, baseType: !1015, size: 64, flags: DIFlagArtificial | DIFlagObjectPointer)
!1021 = !DISubprogram(name: "new_allocator", scope: !1015, file: !147, line: 81, type: !1022, isLocal: false, isDefinition: false, scopeLine: 81, flags: DIFlagPublic | DIFlagPrototyped, isOptimized: true)
!1022 = !DISubroutineType(types: !1023)
!1023 = !{null, !1020, !1024}
!1024 = !DIDerivedType(tag: DW_TAG_reference_type, baseType: !1025, size: 64)
!1025 = !DIDerivedType(tag: DW_TAG_const_type, baseType: !1015)
!1026 = !DISubprogram(name: "~new_allocator", scope: !1015, file: !147, line: 86, type: !1018, isLocal: false, isDefinition: false, scopeLine: 86, flags: DIFlagPublic | DIFlagPrototyped, isOptimized: true)
!1027 = !DISubprogram(name: "address", linkageName: "_ZNK9__gnu_cxx13new_allocatorINSt7__cxx1112basic_stringIcSt11char_traitsIcESaIcEEEE7addressERS6_", scope: !1015, file: !147, line: 89, type: !1028, isLocal: false, isDefinition: false, scopeLine: 89, flags: DIFlagPublic | DIFlagPrototyped, isOptimized: true)
!1028 = !DISubroutineType(types: !1029)
!1029 = !{!1030, !1031, !1032}
!1030 = !DIDerivedType(tag: DW_TAG_typedef, name: "pointer", scope: !1015, file: !147, line: 63, baseType: !1008)
!1031 = !DIDerivedType(tag: DW_TAG_pointer_type, baseType: !1025, size: 64, flags: DIFlagArtificial | DIFlagObjectPointer)
!1032 = !DIDerivedType(tag: DW_TAG_typedef, name: "reference", scope: !1015, file: !147, line: 65, baseType: !1033)
!1033 = !DIDerivedType(tag: DW_TAG_reference_type, baseType: !31, size: 64)
!1034 = !DISubprogram(name: "address", linkageName: "_ZNK9__gnu_cxx13new_allocatorINSt7__cxx1112basic_stringIcSt11char_traitsIcESaIcEEEE7addressERKS6_", scope: !1015, file: !147, line: 93, type: !1035, isLocal: false, isDefinition: false, scopeLine: 93, flags: DIFlagPublic | DIFlagPrototyped, isOptimized: true)
!1035 = !DISubroutineType(types: !1036)
!1036 = !{!1037, !1031, !1039}
!1037 = !DIDerivedType(tag: DW_TAG_typedef, name: "const_pointer", scope: !1015, file: !147, line: 64, baseType: !1038)
!1038 = !DIDerivedType(tag: DW_TAG_pointer_type, baseType: !343, size: 64)
!1039 = !DIDerivedType(tag: DW_TAG_typedef, name: "const_reference", scope: !1015, file: !147, line: 66, baseType: !600)
!1040 = !DISubprogram(name: "allocate", linkageName: "_ZN9__gnu_cxx13new_allocatorINSt7__cxx1112basic_stringIcSt11char_traitsIcESaIcEEEE8allocateEmPKv", scope: !1015, file: !147, line: 99, type: !1041, isLocal: false, isDefinition: false, scopeLine: 99, flags: DIFlagPublic | DIFlagPrototyped, isOptimized: true)
!1041 = !DISubroutineType(types: !1042)
!1042 = !{!1030, !1020, !174, !178}
!1043 = !DISubprogram(name: "deallocate", linkageName: "_ZN9__gnu_cxx13new_allocatorINSt7__cxx1112basic_stringIcSt11char_traitsIcESaIcEEEE10deallocateEPS6_m", scope: !1015, file: !147, line: 116, type: !1044, isLocal: false, isDefinition: false, scopeLine: 116, flags: DIFlagPublic | DIFlagPrototyped, isOptimized: true)
!1044 = !DISubroutineType(types: !1045)
!1045 = !{null, !1020, !1030, !174}
!1046 = !DISubprogram(name: "max_size", linkageName: "_ZNK9__gnu_cxx13new_allocatorINSt7__cxx1112basic_stringIcSt11char_traitsIcESaIcEEEE8max_sizeEv", scope: !1015, file: !147, line: 129, type: !1047, isLocal: false, isDefinition: false, scopeLine: 129, flags: DIFlagPublic | DIFlagPrototyped, isOptimized: true)
!1047 = !DISubroutineType(types: !1048)
!1048 = !{!174, !1031}
!1049 = !DISubprogram(name: "allocator", scope: !1011, file: !141, line: 131, type: !1050, isLocal: false, isDefinition: false, scopeLine: 131, flags: DIFlagPublic | DIFlagPrototyped, isOptimized: true)
!1050 = !DISubroutineType(types: !1051)
!1051 = !{null, !1052}
!1052 = !DIDerivedType(tag: DW_TAG_pointer_type, baseType: !1011, size: 64, flags: DIFlagArtificial | DIFlagObjectPointer)
!1053 = !DISubprogram(name: "allocator", scope: !1011, file: !141, line: 133, type: !1054, isLocal: false, isDefinition: false, scopeLine: 133, flags: DIFlagPublic | DIFlagPrototyped, isOptimized: true)
!1054 = !DISubroutineType(types: !1055)
!1055 = !{null, !1052, !1056}
!1056 = !DIDerivedType(tag: DW_TAG_reference_type, baseType: !1057, size: 64)
!1057 = !DIDerivedType(tag: DW_TAG_const_type, baseType: !1011)
!1058 = !DISubprogram(name: "~allocator", scope: !1011, file: !141, line: 139, type: !1050, isLocal: false, isDefinition: false, scopeLine: 139, flags: DIFlagPublic | DIFlagPrototyped, isOptimized: true)
!1059 = !DISubprogram(name: "allocate", linkageName: "_ZNSt16allocator_traitsISaINSt7__cxx1112basic_stringIcSt11char_traitsIcESaIcEEEEE8allocateERS6_mPKv", scope: !1002, file: !64, line: 449, type: !1060, isLocal: false, isDefinition: false, scopeLine: 449, flags: DIFlagPrototyped | DIFlagStaticMember, isOptimized: true)
!1060 = !DISubroutineType(types: !1061)
!1061 = !{!1007, !1009, !198, !202}
!1062 = !DISubprogram(name: "deallocate", linkageName: "_ZNSt16allocator_traitsISaINSt7__cxx1112basic_stringIcSt11char_traitsIcESaIcEEEEE10deallocateERS6_PS5_m", scope: !1002, file: !64, line: 461, type: !1063, isLocal: false, isDefinition: false, scopeLine: 461, flags: DIFlagPrototyped | DIFlagStaticMember, isOptimized: true)
!1063 = !DISubroutineType(types: !1064)
!1064 = !{null, !1009, !1007, !198}
!1065 = !DISubprogram(name: "max_size", linkageName: "_ZNSt16allocator_traitsISaINSt7__cxx1112basic_stringIcSt11char_traitsIcESaIcEEEEE8max_sizeERKS6_", scope: !1002, file: !64, line: 495, type: !1066, isLocal: false, isDefinition: false, scopeLine: 495, flags: DIFlagPrototyped | DIFlagStaticMember, isOptimized: true)
!1066 = !DISubroutineType(types: !1067)
!1067 = !{!1068, !1069}
!1068 = !DIDerivedType(tag: DW_TAG_typedef, name: "size_type", scope: !1002, file: !64, line: 407, baseType: !175)
!1069 = !DIDerivedType(tag: DW_TAG_reference_type, baseType: !1070, size: 64)
!1070 = !DIDerivedType(tag: DW_TAG_const_type, baseType: !1010)
!1071 = !DISubprogram(name: "select_on_container_copy_construction", linkageName: "_ZNSt16allocator_traitsISaINSt7__cxx1112basic_stringIcSt11char_traitsIcESaIcEEEEE37select_on_container_copy_constructionERKS6_", scope: !1002, file: !64, line: 504, type: !1072, isLocal: false, isDefinition: false, scopeLine: 504, flags: DIFlagPrototyped | DIFlagStaticMember, isOptimized: true)
!1072 = !DISubroutineType(types: !1073)
!1073 = !{!1010, !1069}
!1074 = !{!1075}
!1075 = !DITemplateTypeParameter(name: "_Alloc", type: !1011)
!1076 = !DISubprogram(name: "_S_select_on_copy", linkageName: "_ZN9__gnu_cxx14__alloc_traitsISaINSt7__cxx1112basic_stringIcSt11char_traitsIcESaIcEEEES6_E17_S_select_on_copyERKS7_", scope: !999, file: !59, line: 94, type: !1077, isLocal: false, isDefinition: false, scopeLine: 94, flags: DIFlagPrototyped | DIFlagStaticMember, isOptimized: true)
!1077 = !DISubroutineType(types: !1078)
!1078 = !{!1011, !1056}
!1079 = !DISubprogram(name: "_S_on_swap", linkageName: "_ZN9__gnu_cxx14__alloc_traitsISaINSt7__cxx1112basic_stringIcSt11char_traitsIcESaIcEEEES6_E10_S_on_swapERS7_S9_", scope: !999, file: !59, line: 97, type: !1080, isLocal: false, isDefinition: false, scopeLine: 97, flags: DIFlagPrototyped | DIFlagStaticMember, isOptimized: true)
!1080 = !DISubroutineType(types: !1081)
!1081 = !{null, !1082, !1082}
!1082 = !DIDerivedType(tag: DW_TAG_reference_type, baseType: !1011, size: 64)
!1083 = !DISubprogram(name: "_S_propagate_on_copy_assign", linkageName: "_ZN9__gnu_cxx14__alloc_traitsISaINSt7__cxx1112basic_stringIcSt11char_traitsIcESaIcEEEES6_E27_S_propagate_on_copy_assignEv", scope: !999, file: !59, line: 100, type: !225, isLocal: false, isDefinition: false, scopeLine: 100, flags: DIFlagPrototyped | DIFlagStaticMember, isOptimized: true)
!1084 = !DISubprogram(name: "_S_propagate_on_move_assign", linkageName: "_ZN9__gnu_cxx14__alloc_traitsISaINSt7__cxx1112basic_stringIcSt11char_traitsIcESaIcEEEES6_E27_S_propagate_on_move_assignEv", scope: !999, file: !59, line: 103, type: !225, isLocal: false, isDefinition: false, scopeLine: 103, flags: DIFlagPrototyped | DIFlagStaticMember, isOptimized: true)
!1085 = !DISubprogram(name: "_S_propagate_on_swap", linkageName: "_ZN9__gnu_cxx14__alloc_traitsISaINSt7__cxx1112basic_stringIcSt11char_traitsIcESaIcEEEES6_E20_S_propagate_on_swapEv", scope: !999, file: !59, line: 106, type: !225, isLocal: false, isDefinition: false, scopeLine: 106, flags: DIFlagPrototyped | DIFlagStaticMember, isOptimized: true)
!1086 = !DISubprogram(name: "_S_always_equal", linkageName: "_ZN9__gnu_cxx14__alloc_traitsISaINSt7__cxx1112basic_stringIcSt11char_traitsIcESaIcEEEES6_E15_S_always_equalEv", scope: !999, file: !59, line: 109, type: !225, isLocal: false, isDefinition: false, scopeLine: 109, flags: DIFlagPrototyped | DIFlagStaticMember, isOptimized: true)
!1087 = !DISubprogram(name: "_S_nothrow_move", linkageName: "_ZN9__gnu_cxx14__alloc_traitsISaINSt7__cxx1112basic_stringIcSt11char_traitsIcESaIcEEEES6_E15_S_nothrow_moveEv", scope: !999, file: !59, line: 112, type: !225, isLocal: false, isDefinition: false, scopeLine: 112, flags: DIFlagPrototyped | DIFlagStaticMember, isOptimized: true)
!1088 = !{!1075, !1089}
!1089 = !DITemplateTypeParameter(type: !31)
!1090 = !DIDerivedType(tag: DW_TAG_member, name: "_M_finish", scope: !993, file: !49, line: 92, baseType: !997, size: 64, offset: 64)
!1091 = !DIDerivedType(tag: DW_TAG_member, name: "_M_end_of_storage", scope: !993, file: !49, line: 93, baseType: !997, size: 64, offset: 128)
!1092 = !DISubprogram(name: "_Vector_impl", scope: !993, file: !49, line: 95, type: !1093, isLocal: false, isDefinition: false, scopeLine: 95, flags: DIFlagPrototyped, isOptimized: true)
!1093 = !DISubroutineType(types: !1094)
!1094 = !{null, !1095}
!1095 = !DIDerivedType(tag: DW_TAG_pointer_type, baseType: !993, size: 64, flags: DIFlagArtificial | DIFlagObjectPointer)
!1096 = !DISubprogram(name: "_Vector_impl", scope: !993, file: !49, line: 99, type: !1097, isLocal: false, isDefinition: false, scopeLine: 99, flags: DIFlagPrototyped, isOptimized: true)
!1097 = !DISubroutineType(types: !1098)
!1098 = !{null, !1095, !1099}
!1099 = !DIDerivedType(tag: DW_TAG_reference_type, baseType: !1100, size: 64)
!1100 = !DIDerivedType(tag: DW_TAG_const_type, baseType: !989)
!1101 = !DISubprogram(name: "_Vector_impl", scope: !993, file: !49, line: 104, type: !1102, isLocal: false, isDefinition: false, scopeLine: 104, flags: DIFlagPrototyped, isOptimized: true)
!1102 = !DISubroutineType(types: !1103)
!1103 = !{null, !1095, !1104}
!1104 = !DIDerivedType(tag: DW_TAG_rvalue_reference_type, baseType: !989, size: 64)
!1105 = !DISubprogram(name: "_M_swap_data", linkageName: "_ZNSt12_Vector_baseINSt7__cxx1112basic_stringIcSt11char_traitsIcESaIcEEESaIS5_EE12_Vector_impl12_M_swap_dataERS8_", scope: !993, file: !49, line: 110, type: !1106, isLocal: false, isDefinition: false, scopeLine: 110, flags: DIFlagPrototyped, isOptimized: true)
!1106 = !DISubroutineType(types: !1107)
!1107 = !{null, !1095, !1108}
!1108 = !DIDerivedType(tag: DW_TAG_reference_type, baseType: !993, size: 64)
!1109 = !DISubprogram(name: "_M_get_Tp_allocator", linkageName: "_ZNSt12_Vector_baseINSt7__cxx1112basic_stringIcSt11char_traitsIcESaIcEEESaIS5_EE19_M_get_Tp_allocatorEv", scope: !990, file: !49, line: 237, type: !1110, isLocal: false, isDefinition: false, scopeLine: 237, flags: DIFlagPrototyped, isOptimized: true)
!1110 = !DISubroutineType(types: !1111)
!1111 = !{!1112, !1113}
!1112 = !DIDerivedType(tag: DW_TAG_reference_type, baseType: !989, size: 64)
!1113 = !DIDerivedType(tag: DW_TAG_pointer_type, baseType: !990, size: 64, flags: DIFlagArtificial | DIFlagObjectPointer)
!1114 = !DISubprogram(name: "_M_get_Tp_allocator", linkageName: "_ZNKSt12_Vector_baseINSt7__cxx1112basic_stringIcSt11char_traitsIcESaIcEEESaIS5_EE19_M_get_Tp_allocatorEv", scope: !990, file: !49, line: 241, type: !1115, isLocal: false, isDefinition: false, scopeLine: 241, flags: DIFlagPrototyped, isOptimized: true)
!1115 = !DISubroutineType(types: !1116)
!1116 = !{!1099, !1117}
!1117 = !DIDerivedType(tag: DW_TAG_pointer_type, baseType: !1118, size: 64, flags: DIFlagArtificial | DIFlagObjectPointer)
!1118 = !DIDerivedType(tag: DW_TAG_const_type, baseType: !990)
!1119 = !DISubprogram(name: "get_allocator", linkageName: "_ZNKSt12_Vector_baseINSt7__cxx1112basic_stringIcSt11char_traitsIcESaIcEEESaIS5_EE13get_allocatorEv", scope: !990, file: !49, line: 245, type: !1120, isLocal: false, isDefinition: false, scopeLine: 245, flags: DIFlagPrototyped, isOptimized: true)
!1120 = !DISubroutineType(types: !1121)
!1121 = !{!1122, !1117}
!1122 = !DIDerivedType(tag: DW_TAG_typedef, name: "allocator_type", scope: !990, file: !49, line: 234, baseType: !1011)
!1123 = !DISubprogram(name: "_Vector_base", scope: !990, file: !49, line: 248, type: !1124, isLocal: false, isDefinition: false, scopeLine: 248, flags: DIFlagPrototyped, isOptimized: true)
!1124 = !DISubroutineType(types: !1125)
!1125 = !{null, !1113}
!1126 = !DISubprogram(name: "_Vector_base", scope: !990, file: !49, line: 251, type: !1127, isLocal: false, isDefinition: false, scopeLine: 251, flags: DIFlagPrototyped, isOptimized: true)
!1127 = !DISubroutineType(types: !1128)
!1128 = !{null, !1113, !1129}
!1129 = !DIDerivedType(tag: DW_TAG_reference_type, baseType: !1130, size: 64)
!1130 = !DIDerivedType(tag: DW_TAG_const_type, baseType: !1122)
!1131 = !DISubprogram(name: "_Vector_base", scope: !990, file: !49, line: 254, type: !1132, isLocal: false, isDefinition: false, scopeLine: 254, flags: DIFlagPrototyped, isOptimized: true)
!1132 = !DISubroutineType(types: !1133)
!1133 = !{null, !1113, !175}
!1134 = !DISubprogram(name: "_Vector_base", scope: !990, file: !49, line: 258, type: !1135, isLocal: false, isDefinition: false, scopeLine: 258, flags: DIFlagPrototyped, isOptimized: true)
!1135 = !DISubroutineType(types: !1136)
!1136 = !{null, !1113, !175, !1129}
!1137 = !DISubprogram(name: "_Vector_base", scope: !990, file: !49, line: 263, type: !1138, isLocal: false, isDefinition: false, scopeLine: 263, flags: DIFlagPrototyped, isOptimized: true)
!1138 = !DISubroutineType(types: !1139)
!1139 = !{null, !1113, !1104}
!1140 = !DISubprogram(name: "_Vector_base", scope: !990, file: !49, line: 266, type: !1141, isLocal: false, isDefinition: false, scopeLine: 266, flags: DIFlagPrototyped, isOptimized: true)
!1141 = !DISubroutineType(types: !1142)
!1142 = !{null, !1113, !1143}
!1143 = !DIDerivedType(tag: DW_TAG_rvalue_reference_type, baseType: !990, size: 64)
!1144 = !DISubprogram(name: "_Vector_base", scope: !990, file: !49, line: 270, type: !1145, isLocal: false, isDefinition: false, scopeLine: 270, flags: DIFlagPrototyped, isOptimized: true)
!1145 = !DISubroutineType(types: !1146)
!1146 = !{null, !1113, !1143, !1129}
!1147 = !DISubprogram(name: "~_Vector_base", scope: !990, file: !49, line: 283, type: !1124, isLocal: false, isDefinition: false, scopeLine: 283, flags: DIFlagPrototyped, isOptimized: true)
!1148 = !DISubprogram(name: "_M_allocate", linkageName: "_ZNSt12_Vector_baseINSt7__cxx1112basic_stringIcSt11char_traitsIcESaIcEEESaIS5_EE11_M_allocateEm", scope: !990, file: !49, line: 293, type: !1149, isLocal: false, isDefinition: false, scopeLine: 293, flags: DIFlagPrototyped, isOptimized: true)
!1149 = !DISubroutineType(types: !1150)
!1150 = !{!997, !1113, !175}
!1151 = !DISubprogram(name: "_M_deallocate", linkageName: "_ZNSt12_Vector_baseINSt7__cxx1112basic_stringIcSt11char_traitsIcESaIcEEESaIS5_EE13_M_deallocateEPS5_m", scope: !990, file: !49, line: 300, type: !1152, isLocal: false, isDefinition: false, scopeLine: 300, flags: DIFlagPrototyped, isOptimized: true)
!1152 = !DISubroutineType(types: !1153)
!1153 = !{null, !1113, !997, !175}
!1154 = !DISubprogram(name: "_M_create_storage", linkageName: "_ZNSt12_Vector_baseINSt7__cxx1112basic_stringIcSt11char_traitsIcESaIcEEESaIS5_EE17_M_create_storageEm", scope: !990, file: !49, line: 309, type: !1132, isLocal: false, isDefinition: false, scopeLine: 309, flags: DIFlagPrivate | DIFlagPrototyped, isOptimized: true)
!1155 = !{!602, !1075}
!1156 = !DIDerivedType(tag: DW_TAG_typedef, name: "other", scope: !1157, file: !59, line: 117, baseType: !1158)
!1157 = distinct !DICompositeType(tag: DW_TAG_structure_type, name: "rebind<std::__cxx11::basic_string<char> >", scope: !999, file: !59, line: 116, size: 8, flags: DIFlagTypePassByValue, elements: !114, templateParams: !601, identifier: "_ZTSN9__gnu_cxx14__alloc_traitsISaINSt7__cxx1112basic_stringIcSt11char_traitsIcESaIcEEEES6_E6rebindIS6_EE")
!1158 = !DIDerivedType(tag: DW_TAG_typedef, name: "rebind_alloc<std::__cxx11::basic_string<char> >", scope: !1002, file: !64, line: 422, baseType: !1011)
!1159 = !DIDerivedType(tag: DW_TAG_typedef, name: "size_type", scope: !31, file: !30, line: 88, baseType: !1160)
!1160 = !DIDerivedType(tag: DW_TAG_typedef, name: "size_type", scope: !1161, file: !59, line: 61, baseType: !1184)
!1161 = distinct !DICompositeType(tag: DW_TAG_structure_type, name: "__alloc_traits<std::allocator<char>, char>", scope: !5, file: !59, line: 50, size: 8, flags: DIFlagTypePassByValue, elements: !1162, templateParams: !1206, identifier: "_ZTSN9__gnu_cxx14__alloc_traitsISaIcEcEE")
!1162 = !{!1163, !1192, !1197, !1201, !1202, !1203, !1204, !1205}
!1163 = !DIDerivedType(tag: DW_TAG_inheritance, scope: !1161, baseType: !1164, extraData: i32 0)
!1164 = distinct !DICompositeType(tag: DW_TAG_structure_type, name: "allocator_traits<std::allocator<char> >", scope: !13, file: !64, line: 384, size: 8, flags: DIFlagTypePassByValue, elements: !1165, templateParams: !1190, identifier: "_ZTSSt16allocator_traitsISaIcEE")
!1165 = !{!1166, !1175, !1178, !1181, !1187}
!1166 = !DISubprogram(name: "allocate", linkageName: "_ZNSt16allocator_traitsISaIcEE8allocateERS0_m", scope: !1164, file: !64, line: 435, type: !1167, isLocal: false, isDefinition: false, scopeLine: 435, flags: DIFlagPrototyped | DIFlagStaticMember, isOptimized: true)
!1167 = !DISubroutineType(types: !1168)
!1168 = !{!1169, !1172, !198}
!1169 = !DIDerivedType(tag: DW_TAG_typedef, name: "pointer", scope: !1164, file: !64, line: 392, baseType: !1170)
!1170 = !DIDerivedType(tag: DW_TAG_pointer_type, baseType: !1171, size: 64)
!1171 = !DIBasicType(name: "char", size: 8, encoding: DW_ATE_signed_char)
!1172 = !DIDerivedType(tag: DW_TAG_reference_type, baseType: !1173, size: 64)
!1173 = !DIDerivedType(tag: DW_TAG_typedef, name: "allocator_type", scope: !1164, file: !64, line: 387, baseType: !1174)
!1174 = !DICompositeType(tag: DW_TAG_class_type, name: "allocator<char>", scope: !13, file: !141, line: 199, flags: DIFlagFwdDecl, identifier: "_ZTSSaIcE")
!1175 = !DISubprogram(name: "allocate", linkageName: "_ZNSt16allocator_traitsISaIcEE8allocateERS0_mPKv", scope: !1164, file: !64, line: 449, type: !1176, isLocal: false, isDefinition: false, scopeLine: 449, flags: DIFlagPrototyped | DIFlagStaticMember, isOptimized: true)
!1176 = !DISubroutineType(types: !1177)
!1177 = !{!1169, !1172, !198, !202}
!1178 = !DISubprogram(name: "deallocate", linkageName: "_ZNSt16allocator_traitsISaIcEE10deallocateERS0_Pcm", scope: !1164, file: !64, line: 461, type: !1179, isLocal: false, isDefinition: false, scopeLine: 461, flags: DIFlagPrototyped | DIFlagStaticMember, isOptimized: true)
!1179 = !DISubroutineType(types: !1180)
!1180 = !{null, !1172, !1169, !198}
!1181 = !DISubprogram(name: "max_size", linkageName: "_ZNSt16allocator_traitsISaIcEE8max_sizeERKS0_", scope: !1164, file: !64, line: 495, type: !1182, isLocal: false, isDefinition: false, scopeLine: 495, flags: DIFlagPrototyped | DIFlagStaticMember, isOptimized: true)
!1182 = !DISubroutineType(types: !1183)
!1183 = !{!1184, !1185}
!1184 = !DIDerivedType(tag: DW_TAG_typedef, name: "size_type", scope: !1164, file: !64, line: 407, baseType: !175)
!1185 = !DIDerivedType(tag: DW_TAG_reference_type, baseType: !1186, size: 64)
!1186 = !DIDerivedType(tag: DW_TAG_const_type, baseType: !1173)
!1187 = !DISubprogram(name: "select_on_container_copy_construction", linkageName: "_ZNSt16allocator_traitsISaIcEE37select_on_container_copy_constructionERKS0_", scope: !1164, file: !64, line: 504, type: !1188, isLocal: false, isDefinition: false, scopeLine: 504, flags: DIFlagPrototyped | DIFlagStaticMember, isOptimized: true)
!1188 = !DISubroutineType(types: !1189)
!1189 = !{!1173, !1185}
!1190 = !{!1191}
!1191 = !DITemplateTypeParameter(name: "_Alloc", type: !1174)
!1192 = !DISubprogram(name: "_S_select_on_copy", linkageName: "_ZN9__gnu_cxx14__alloc_traitsISaIcEcE17_S_select_on_copyERKS1_", scope: !1161, file: !59, line: 94, type: !1193, isLocal: false, isDefinition: false, scopeLine: 94, flags: DIFlagPrototyped | DIFlagStaticMember, isOptimized: true)
!1193 = !DISubroutineType(types: !1194)
!1194 = !{!1174, !1195}
!1195 = !DIDerivedType(tag: DW_TAG_reference_type, baseType: !1196, size: 64)
!1196 = !DIDerivedType(tag: DW_TAG_const_type, baseType: !1174)
!1197 = !DISubprogram(name: "_S_on_swap", linkageName: "_ZN9__gnu_cxx14__alloc_traitsISaIcEcE10_S_on_swapERS1_S3_", scope: !1161, file: !59, line: 97, type: !1198, isLocal: false, isDefinition: false, scopeLine: 97, flags: DIFlagPrototyped | DIFlagStaticMember, isOptimized: true)
!1198 = !DISubroutineType(types: !1199)
!1199 = !{null, !1200, !1200}
!1200 = !DIDerivedType(tag: DW_TAG_reference_type, baseType: !1174, size: 64)
!1201 = !DISubprogram(name: "_S_propagate_on_copy_assign", linkageName: "_ZN9__gnu_cxx14__alloc_traitsISaIcEcE27_S_propagate_on_copy_assignEv", scope: !1161, file: !59, line: 100, type: !225, isLocal: false, isDefinition: false, scopeLine: 100, flags: DIFlagPrototyped | DIFlagStaticMember, isOptimized: true)
!1202 = !DISubprogram(name: "_S_propagate_on_move_assign", linkageName: "_ZN9__gnu_cxx14__alloc_traitsISaIcEcE27_S_propagate_on_move_assignEv", scope: !1161, file: !59, line: 103, type: !225, isLocal: false, isDefinition: false, scopeLine: 103, flags: DIFlagPrototyped | DIFlagStaticMember, isOptimized: true)
!1203 = !DISubprogram(name: "_S_propagate_on_swap", linkageName: "_ZN9__gnu_cxx14__alloc_traitsISaIcEcE20_S_propagate_on_swapEv", scope: !1161, file: !59, line: 106, type: !225, isLocal: false, isDefinition: false, scopeLine: 106, flags: DIFlagPrototyped | DIFlagStaticMember, isOptimized: true)
!1204 = !DISubprogram(name: "_S_always_equal", linkageName: "_ZN9__gnu_cxx14__alloc_traitsISaIcEcE15_S_always_equalEv", scope: !1161, file: !59, line: 109, type: !225, isLocal: false, isDefinition: false, scopeLine: 109, flags: DIFlagPrototyped | DIFlagStaticMember, isOptimized: true)
!1205 = !DISubprogram(name: "_S_nothrow_move", linkageName: "_ZN9__gnu_cxx14__alloc_traitsISaIcEcE15_S_nothrow_moveEv", scope: !1161, file: !59, line: 112, type: !225, isLocal: false, isDefinition: false, scopeLine: 112, flags: DIFlagPrototyped | DIFlagStaticMember, isOptimized: true)
!1206 = !{!1191, !1207}
!1207 = !DITemplateTypeParameter(type: !1171)
!1208 = !DIDerivedType(tag: DW_TAG_pointer_type, baseType: !1209, size: 64)
!1209 = !DIDerivedType(tag: DW_TAG_typedef, name: "char_type", scope: !1211, file: !1210, line: 277, baseType: !1171)
!1210 = !DIFile(filename: "/usr/bin/../lib64/gcc/x86_64-pc-linux-gnu/8.2.1/../../../../include/c++/8.2.1/bits/char_traits.h", directory: "/home/firefox/firefox/mozilla-unified/obj-opt-x86_64-pc-linux-gnu/widget")
!1211 = distinct !DICompositeType(tag: DW_TAG_structure_type, name: "char_traits<char>", scope: !13, file: !1210, line: 275, size: 8, flags: DIFlagTypePassByValue, elements: !1212, templateParams: !1258, identifier: "_ZTSSt11char_traitsIcE")
!1212 = !{!1213, !1219, !1222, !1223, !1227, !1230, !1233, !1236, !1237, !1240, !1246, !1249, !1252, !1255}
!1213 = !DISubprogram(name: "assign", linkageName: "_ZNSt11char_traitsIcE6assignERcRKc", scope: !1211, file: !1210, line: 284, type: !1214, isLocal: false, isDefinition: false, scopeLine: 284, flags: DIFlagPrototyped | DIFlagStaticMember, isOptimized: true)
!1214 = !DISubroutineType(types: !1215)
!1215 = !{null, !1216, !1217}
!1216 = !DIDerivedType(tag: DW_TAG_reference_type, baseType: !1209, size: 64)
!1217 = !DIDerivedType(tag: DW_TAG_reference_type, baseType: !1218, size: 64)
!1218 = !DIDerivedType(tag: DW_TAG_const_type, baseType: !1209)
!1219 = !DISubprogram(name: "eq", linkageName: "_ZNSt11char_traitsIcE2eqERKcS2_", scope: !1211, file: !1210, line: 288, type: !1220, isLocal: false, isDefinition: false, scopeLine: 288, flags: DIFlagPrototyped | DIFlagStaticMember, isOptimized: true)
!1220 = !DISubroutineType(types: !1221)
!1221 = !{!117, !1217, !1217}
!1222 = !DISubprogram(name: "lt", linkageName: "_ZNSt11char_traitsIcE2ltERKcS2_", scope: !1211, file: !1210, line: 292, type: !1220, isLocal: false, isDefinition: false, scopeLine: 292, flags: DIFlagPrototyped | DIFlagStaticMember, isOptimized: true)
!1223 = !DISubprogram(name: "compare", linkageName: "_ZNSt11char_traitsIcE7compareEPKcS2_m", scope: !1211, file: !1210, line: 300, type: !1224, isLocal: false, isDefinition: false, scopeLine: 300, flags: DIFlagPrototyped | DIFlagStaticMember, isOptimized: true)
!1224 = !DISubroutineType(types: !1225)
!1225 = !{!93, !1226, !1226, !175}
!1226 = !DIDerivedType(tag: DW_TAG_pointer_type, baseType: !1218, size: 64)
!1227 = !DISubprogram(name: "length", linkageName: "_ZNSt11char_traitsIcE6lengthEPKc", scope: !1211, file: !1210, line: 314, type: !1228, isLocal: false, isDefinition: false, scopeLine: 314, flags: DIFlagPrototyped | DIFlagStaticMember, isOptimized: true)
!1228 = !DISubroutineType(types: !1229)
!1229 = !{!175, !1226}
!1230 = !DISubprogram(name: "find", linkageName: "_ZNSt11char_traitsIcE4findEPKcmRS1_", scope: !1211, file: !1210, line: 324, type: !1231, isLocal: false, isDefinition: false, scopeLine: 324, flags: DIFlagPrototyped | DIFlagStaticMember, isOptimized: true)
!1231 = !DISubroutineType(types: !1232)
!1232 = !{!1226, !1226, !175, !1217}
!1233 = !DISubprogram(name: "move", linkageName: "_ZNSt11char_traitsIcE4moveEPcPKcm", scope: !1211, file: !1210, line: 338, type: !1234, isLocal: false, isDefinition: false, scopeLine: 338, flags: DIFlagPrototyped | DIFlagStaticMember, isOptimized: true)
!1234 = !DISubroutineType(types: !1235)
!1235 = !{!1208, !1208, !1226, !175}
!1236 = !DISubprogram(name: "copy", linkageName: "_ZNSt11char_traitsIcE4copyEPcPKcm", scope: !1211, file: !1210, line: 346, type: !1234, isLocal: false, isDefinition: false, scopeLine: 346, flags: DIFlagPrototyped | DIFlagStaticMember, isOptimized: true)
!1237 = !DISubprogram(name: "assign", linkageName: "_ZNSt11char_traitsIcE6assignEPcmc", scope: !1211, file: !1210, line: 354, type: !1238, isLocal: false, isDefinition: false, scopeLine: 354, flags: DIFlagPrototyped | DIFlagStaticMember, isOptimized: true)
!1238 = !DISubroutineType(types: !1239)
!1239 = !{!1208, !1208, !175, !1209}
!1240 = !DISubprogram(name: "to_char_type", linkageName: "_ZNSt11char_traitsIcE12to_char_typeERKi", scope: !1211, file: !1210, line: 362, type: !1241, isLocal: false, isDefinition: false, scopeLine: 362, flags: DIFlagPrototyped | DIFlagStaticMember, isOptimized: true)
!1241 = !DISubroutineType(types: !1242)
!1242 = !{!1209, !1243}
!1243 = !DIDerivedType(tag: DW_TAG_reference_type, baseType: !1244, size: 64)
!1244 = !DIDerivedType(tag: DW_TAG_const_type, baseType: !1245)
!1245 = !DIDerivedType(tag: DW_TAG_typedef, name: "int_type", scope: !1211, file: !1210, line: 278, baseType: !93)
!1246 = !DISubprogram(name: "to_int_type", linkageName: "_ZNSt11char_traitsIcE11to_int_typeERKc", scope: !1211, file: !1210, line: 368, type: !1247, isLocal: false, isDefinition: false, scopeLine: 368, flags: DIFlagPrototyped | DIFlagStaticMember, isOptimized: true)
!1247 = !DISubroutineType(types: !1248)
!1248 = !{!1245, !1217}
!1249 = !DISubprogram(name: "eq_int_type", linkageName: "_ZNSt11char_traitsIcE11eq_int_typeERKiS2_", scope: !1211, file: !1210, line: 372, type: !1250, isLocal: false, isDefinition: false, scopeLine: 372, flags: DIFlagPrototyped | DIFlagStaticMember, isOptimized: true)
!1250 = !DISubroutineType(types: !1251)
!1251 = !{!117, !1243, !1243}
!1252 = !DISubprogram(name: "eof", linkageName: "_ZNSt11char_traitsIcE3eofEv", scope: !1211, file: !1210, line: 376, type: !1253, isLocal: false, isDefinition: false, scopeLine: 376, flags: DIFlagPrototyped | DIFlagStaticMember, isOptimized: true)
!1253 = !DISubroutineType(types: !1254)
!1254 = !{!1245}
!1255 = !DISubprogram(name: "not_eof", linkageName: "_ZNSt11char_traitsIcE7not_eofERKi", scope: !1211, file: !1210, line: 380, type: !1256, isLocal: false, isDefinition: false, scopeLine: 380, flags: DIFlagPrototyped | DIFlagStaticMember, isOptimized: true)
!1256 = !DISubroutineType(types: !1257)
!1257 = !{!1245, !1243}
!1258 = !{!1259}
!1259 = !DITemplateTypeParameter(name: "_CharT", type: !1171)
!1260 = !DIDerivedType(tag: DW_TAG_typedef, name: "size_type", file: !49, line: 374, baseType: !175)
!1261 = !DIDerivedType(tag: DW_TAG_pointer_type, baseType: !243, size: 64)
!1262 = !DIDerivedType(tag: DW_TAG_typedef, name: "iterator", scope: !1263, file: !49, line: 369, baseType: !1461)
!1263 = distinct !DICompositeType(tag: DW_TAG_class_type, name: "vector<std::pair<int, int>, std::allocator<std::pair<int, int> > >", scope: !13, file: !49, line: 339, size: 192, flags: DIFlagTypePassByReference, elements: !1264, templateParams: !298, identifier: "_ZTSSt6vectorISt4pairIiiESaIS1_EE")
!1264 = !{!1265, !1266, !1270, !1276, !1279, !1285, !1290, !1294, !1297, !1300, !1305, !1306, !1310, !1313, !1316, !1319, !1322, !1325, !1331, !1332, !1333, !1338, !1343, !1344, !1345, !1346, !1347, !1348, !1349, !1352, !1353, !1356, !1357, !1358, !1359, !1362, !1363, !1371, !1378, !1381, !1382, !1383, !1386, !1389, !1390, !1391, !1394, !1397, !1400, !1404, !1405, !1408, !1411, !1414, !1417, !1420, !1423, !1426, !1427, !1428, !1429, !1430, !1433, !1434, !1437, !1438, !1439, !1445, !1449, !1452, !1455, !1458}
!1265 = !DIDerivedType(tag: DW_TAG_inheritance, scope: !1263, baseType: !50, flags: DIFlagProtected, extraData: i32 0)
!1266 = !DISubprogram(name: "vector", scope: !1263, file: !49, line: 391, type: !1267, isLocal: false, isDefinition: false, scopeLine: 391, flags: DIFlagPublic | DIFlagPrototyped, isOptimized: true)
!1267 = !DISubroutineType(types: !1268)
!1268 = !{null, !1269}
!1269 = !DIDerivedType(tag: DW_TAG_pointer_type, baseType: !1263, size: 64, flags: DIFlagArtificial | DIFlagObjectPointer)
!1270 = !DISubprogram(name: "vector", scope: !1263, file: !49, line: 402, type: !1271, isLocal: false, isDefinition: false, scopeLine: 402, flags: DIFlagPublic | DIFlagExplicit | DIFlagPrototyped, isOptimized: true)
!1271 = !DISubroutineType(types: !1272)
!1272 = !{null, !1269, !1273}
!1273 = !DIDerivedType(tag: DW_TAG_reference_type, baseType: !1274, size: 64)
!1274 = !DIDerivedType(tag: DW_TAG_const_type, baseType: !1275)
!1275 = !DIDerivedType(tag: DW_TAG_typedef, name: "allocator_type", scope: !1263, file: !49, line: 376, baseType: !140)
!1276 = !DISubprogram(name: "vector", scope: !1263, file: !49, line: 415, type: !1277, isLocal: false, isDefinition: false, scopeLine: 415, flags: DIFlagPublic | DIFlagExplicit | DIFlagPrototyped, isOptimized: true)
!1277 = !DISubroutineType(types: !1278)
!1278 = !{null, !1269, !1260, !1273}
!1279 = !DISubprogram(name: "vector", scope: !1263, file: !49, line: 427, type: !1280, isLocal: false, isDefinition: false, scopeLine: 427, flags: DIFlagPublic | DIFlagPrototyped, isOptimized: true)
!1280 = !DISubroutineType(types: !1281)
!1281 = !{null, !1269, !1260, !1282, !1273}
!1282 = !DIDerivedType(tag: DW_TAG_reference_type, baseType: !1283, size: 64)
!1283 = !DIDerivedType(tag: DW_TAG_const_type, baseType: !1284)
!1284 = !DIDerivedType(tag: DW_TAG_typedef, name: "value_type", scope: !1263, file: !49, line: 364, baseType: !71)
!1285 = !DISubprogram(name: "vector", scope: !1263, file: !49, line: 458, type: !1286, isLocal: false, isDefinition: false, scopeLine: 458, flags: DIFlagPublic | DIFlagPrototyped, isOptimized: true)
!1286 = !DISubroutineType(types: !1287)
!1287 = !{null, !1269, !1288}
!1288 = !DIDerivedType(tag: DW_TAG_reference_type, baseType: !1289, size: 64)
!1289 = !DIDerivedType(tag: DW_TAG_const_type, baseType: !1263)
!1290 = !DISubprogram(name: "vector", scope: !1263, file: !49, line: 476, type: !1291, isLocal: false, isDefinition: false, scopeLine: 476, flags: DIFlagPublic | DIFlagPrototyped, isOptimized: true)
!1291 = !DISubroutineType(types: !1292)
!1292 = !{null, !1269, !1293}
!1293 = !DIDerivedType(tag: DW_TAG_rvalue_reference_type, baseType: !1263, size: 64)
!1294 = !DISubprogram(name: "vector", scope: !1263, file: !49, line: 480, type: !1295, isLocal: false, isDefinition: false, scopeLine: 480, flags: DIFlagPublic | DIFlagPrototyped, isOptimized: true)
!1295 = !DISubroutineType(types: !1296)
!1296 = !{null, !1269, !1288, !1273}
!1297 = !DISubprogram(name: "vector", scope: !1263, file: !49, line: 490, type: !1298, isLocal: false, isDefinition: false, scopeLine: 490, flags: DIFlagPublic | DIFlagPrototyped, isOptimized: true)
!1298 = !DISubroutineType(types: !1299)
!1299 = !{null, !1269, !1293, !1273}
!1300 = !DISubprogram(name: "vector", scope: !1263, file: !49, line: 515, type: !1301, isLocal: false, isDefinition: false, scopeLine: 515, flags: DIFlagPublic | DIFlagPrototyped, isOptimized: true)
!1301 = !DISubroutineType(types: !1302)
!1302 = !{null, !1269, !1303, !1273}
!1303 = !DICompositeType(tag: DW_TAG_class_type, name: "initializer_list<std::pair<int, int> >", scope: !13, file: !1304, line: 47, flags: DIFlagFwdDecl, identifier: "_ZTSSt16initializer_listISt4pairIiiEE")
!1304 = !DIFile(filename: "/usr/bin/../lib64/gcc/x86_64-pc-linux-gnu/8.2.1/../../../../include/c++/8.2.1/initializer_list", directory: "/home/firefox/firefox/mozilla-unified/obj-opt-x86_64-pc-linux-gnu/widget")
